	.text
	.file	"cd.c"
	.globl	got_too_much_arg                # -- Begin function got_too_much_arg
	.p2align	4, 0x90
	.type	got_too_much_arg,@function
got_too_much_arg:                       # @got_too_much_arg
.Lfunc_begin0:
	.file	1 "/mnt/nfs/homes/cboukhal/42/minishell" "src/builtin/cd.c"
	.loc	1 53 0                          # src/builtin/cd.c:53:0
	.cfi_startproc
# %bb.0:
	pushq	%rbp
	.cfi_def_cfa_offset 16
	.cfi_offset %rbp, -16
	movq	%rsp, %rbp
	.cfi_def_cfa_register %rbp
	movq	%rdi, -16(%rbp)
.Ltmp0:
	.loc	1 56 4 prologue_end             # src/builtin/cd.c:56:4
	movl	$0, -20(%rbp)
.LBB0_1:                                # =>This Inner Loop Header: Depth=1
	.loc	1 57 9                          # src/builtin/cd.c:57:9
	movq	-16(%rbp), %rax
	movslq	-20(%rbp), %rcx
	.loc	1 57 2 is_stmt 0                # src/builtin/cd.c:57:2
	cmpq	$0, (%rax,%rcx,8)
	je	.LBB0_5
# %bb.2:                                #   in Loop: Header=BB0_1 Depth=1
.Ltmp1:
	.loc	1 59 9 is_stmt 1                # src/builtin/cd.c:59:9
	cmpl	$2, -20(%rbp)
.Ltmp2:
	.loc	1 59 7 is_stmt 0                # src/builtin/cd.c:59:7
	jle	.LBB0_4
# %bb.3:
.Ltmp3:
	.loc	1 60 4 is_stmt 1                # src/builtin/cd.c:60:4
	jmp	.LBB0_5
.Ltmp4:
.LBB0_4:                                #   in Loop: Header=BB0_1 Depth=1
	.loc	1 61 4                          # src/builtin/cd.c:61:4
	movl	-20(%rbp), %eax
	addl	$1, %eax
	movl	%eax, -20(%rbp)
.Ltmp5:
	.loc	1 57 2                          # src/builtin/cd.c:57:2
	jmp	.LBB0_1
.LBB0_5:
.Ltmp6:
	.loc	1 63 8                          # src/builtin/cd.c:63:8
	cmpl	$2, -20(%rbp)
.Ltmp7:
	.loc	1 63 6 is_stmt 0                # src/builtin/cd.c:63:6
	jg	.LBB0_7
# %bb.6:
.Ltmp8:
	.loc	1 64 3 is_stmt 1                # src/builtin/cd.c:64:3
	movb	$0, -1(%rbp)
	jmp	.LBB0_8
.Ltmp9:
.LBB0_7:
	.loc	1 65 2                          # src/builtin/cd.c:65:2
	movb	$1, -1(%rbp)
.LBB0_8:
	.loc	1 66 1                          # src/builtin/cd.c:66:1
	movb	-1(%rbp), %al
	andb	$1, %al
	movzbl	%al, %eax
	popq	%rbp
	.cfi_def_cfa %rsp, 8
	retq
.Ltmp10:
.Lfunc_end0:
	.size	got_too_much_arg, .Lfunc_end0-got_too_much_arg
	.cfi_endproc
                                        # -- End function
	.globl	get_home_path                   # -- Begin function get_home_path
	.p2align	4, 0x90
	.type	get_home_path,@function
get_home_path:                          # @get_home_path
.Lfunc_begin1:
	.loc	1 69 0                          # src/builtin/cd.c:69:0
	.cfi_startproc
# %bb.0:
	pushq	%rbp
	.cfi_def_cfa_offset 16
	.cfi_offset %rbp, -16
	movq	%rsp, %rbp
	.cfi_def_cfa_register %rbp
	subq	$16, %rsp
	movq	%rdi, -16(%rbp)
.LBB1_1:                                # =>This Inner Loop Header: Depth=1
.Ltmp11:
	.loc	1 70 2 prologue_end             # src/builtin/cd.c:70:2
	cmpq	$0, -16(%rbp)
	je	.LBB1_5
# %bb.2:                                #   in Loop: Header=BB1_1 Depth=1
.Ltmp12:
	.loc	1 72 18                         # src/builtin/cd.c:72:18
	movq	-16(%rbp), %rax
	.loc	1 72 23 is_stmt 0               # src/builtin/cd.c:72:23
	movq	(%rax), %rdi
	.loc	1 72 7                          # src/builtin/cd.c:72:7
	movabsq	$.L.str, %rsi
	movl	$4, %edx
	callq	ft_strncmp
	.loc	1 72 40                         # src/builtin/cd.c:72:40
	cmpl	$0, %eax
.Ltmp13:
	.loc	1 72 7                          # src/builtin/cd.c:72:7
	jne	.LBB1_4
# %bb.3:
.Ltmp14:
	.loc	1 73 12 is_stmt 1               # src/builtin/cd.c:73:12
	movq	-16(%rbp), %rax
	.loc	1 73 17 is_stmt 0               # src/builtin/cd.c:73:17
	movq	8(%rax), %rax
	.loc	1 73 4                          # src/builtin/cd.c:73:4
	movq	%rax, -8(%rbp)
	jmp	.LBB1_6
.Ltmp15:
.LBB1_4:                                #   in Loop: Header=BB1_1 Depth=1
	.loc	1 74 9 is_stmt 1                # src/builtin/cd.c:74:9
	movq	-16(%rbp), %rax
	.loc	1 74 14 is_stmt 0               # src/builtin/cd.c:74:14
	movq	16(%rax), %rax
	.loc	1 74 7                          # src/builtin/cd.c:74:7
	movq	%rax, -16(%rbp)
.Ltmp16:
	.loc	1 70 2 is_stmt 1                # src/builtin/cd.c:70:2
	jmp	.LBB1_1
.LBB1_5:
	.loc	1 76 2                          # src/builtin/cd.c:76:2
	movq	$0, -8(%rbp)
.LBB1_6:
	.loc	1 77 1                          # src/builtin/cd.c:77:1
	movq	-8(%rbp), %rax
	addq	$16, %rsp
	popq	%rbp
	.cfi_def_cfa %rsp, 8
	retq
.Ltmp17:
.Lfunc_end1:
	.size	get_home_path, .Lfunc_end1-get_home_path
	.cfi_endproc
                                        # -- End function
	.globl	cd_home                         # -- Begin function cd_home
	.p2align	4, 0x90
	.type	cd_home,@function
cd_home:                                # @cd_home
.Lfunc_begin2:
	.loc	1 80 0                          # src/builtin/cd.c:80:0
	.cfi_startproc
# %bb.0:
	pushq	%rbp
	.cfi_def_cfa_offset 16
	.cfi_offset %rbp, -16
	movq	%rsp, %rbp
	.cfi_def_cfa_register %rbp
	subq	$16, %rsp
	movq	%rdi, -8(%rbp)
.Ltmp18:
	.loc	1 83 23 prologue_end            # src/builtin/cd.c:83:23
	movq	-8(%rbp), %rax
	.loc	1 83 34 is_stmt 0               # src/builtin/cd.c:83:34
	movq	56(%rax), %rdi
	.loc	1 83 9                          # src/builtin/cd.c:83:9
	callq	get_home_path
	.loc	1 83 7                          # src/builtin/cd.c:83:7
	movq	%rax, -16(%rbp)
.Ltmp19:
	.loc	1 84 7 is_stmt 1                # src/builtin/cd.c:84:7
	cmpq	$0, -16(%rbp)
.Ltmp20:
	.loc	1 84 6 is_stmt 0                # src/builtin/cd.c:84:6
	jne	.LBB2_2
# %bb.1:
.Ltmp21:
	.loc	1 85 22 is_stmt 1               # src/builtin/cd.c:85:22
	movq	-8(%rbp), %rdx
	.loc	1 85 33 is_stmt 0               # src/builtin/cd.c:85:33
	addq	$44, %rdx
	.loc	1 85 3                          # src/builtin/cd.c:85:3
	movl	$1, %edi
	xorl	%eax, %eax
	movl	%eax, %esi
	callq	error_cd
	jmp	.LBB2_5
.LBB2_2:
.Ltmp22:
	.loc	1 86 17 is_stmt 1               # src/builtin/cd.c:86:17
	movq	-16(%rbp), %rdi
	.loc	1 86 11 is_stmt 0               # src/builtin/cd.c:86:11
	callq	chdir
	.loc	1 86 23                         # src/builtin/cd.c:86:23
	cmpl	$0, %eax
.Ltmp23:
	.loc	1 86 11                         # src/builtin/cd.c:86:11
	je	.LBB2_4
# %bb.3:
.Ltmp24:
	.loc	1 87 3 is_stmt 1                # src/builtin/cd.c:87:3
	movabsq	$.L.str.1, %rdi
	callq	perror
.Ltmp25:
.LBB2_4:
	.loc	1 0 3 is_stmt 0                 # src/builtin/cd.c:0:3
	jmp	.LBB2_5
.LBB2_5:
	.loc	1 88 1 is_stmt 1                # src/builtin/cd.c:88:1
	addq	$16, %rsp
	popq	%rbp
	.cfi_def_cfa %rsp, 8
	retq
.Ltmp26:
.Lfunc_end2:
	.size	cd_home, .Lfunc_end2-cd_home
	.cfi_endproc
                                        # -- End function
	.globl	cd                              # -- Begin function cd
	.p2align	4, 0x90
	.type	cd,@function
cd:                                     # @cd
.Lfunc_begin3:
	.loc	1 91 0                          # src/builtin/cd.c:91:0
	.cfi_startproc
# %bb.0:
	pushq	%rbp
	.cfi_def_cfa_offset 16
	.cfi_offset %rbp, -16
	movq	%rsp, %rbp
	.cfi_def_cfa_register %rbp
	subq	$16, %rsp
	movq	%rdi, -8(%rbp)
	movq	%rsi, -16(%rbp)
.Ltmp27:
	.loc	1 92 23 prologue_end            # src/builtin/cd.c:92:23
	movq	-16(%rbp), %rax
	.loc	1 92 28 is_stmt 0               # src/builtin/cd.c:92:28
	movq	88(%rax), %rdi
	.loc	1 92 6                          # src/builtin/cd.c:92:6
	callq	got_too_much_arg
.Ltmp28:
	.loc	1 92 6                          # src/builtin/cd.c:92:6
	testb	$1, %al
	jne	.LBB3_1
	jmp	.LBB3_2
.LBB3_1:
.Ltmp29:
	.loc	1 93 22 is_stmt 1               # src/builtin/cd.c:93:22
	movq	-8(%rbp), %rdx
	.loc	1 93 33 is_stmt 0               # src/builtin/cd.c:93:33
	addq	$44, %rdx
	.loc	1 93 3                          # src/builtin/cd.c:93:3
	movl	$2, %edi
	xorl	%eax, %eax
	movl	%eax, %esi
	callq	error_cd
	jmp	.LBB3_10
.LBB3_2:
.Ltmp30:
	.loc	1 94 23 is_stmt 1               # src/builtin/cd.c:94:23
	movq	-16(%rbp), %rax
	.loc	1 94 28 is_stmt 0               # src/builtin/cd.c:94:28
	movq	88(%rax), %rdi
	.loc	1 94 11                         # src/builtin/cd.c:94:11
	callq	cmd_arg_nbr
	.loc	1 94 39                         # src/builtin/cd.c:94:39
	cmpl	$1, %eax
	.loc	1 95 3 is_stmt 1                # src/builtin/cd.c:95:3
	je	.LBB3_5
# %bb.3:
	.loc	1 95 19 is_stmt 0               # src/builtin/cd.c:95:19
	movq	-16(%rbp), %rax
	.loc	1 95 24                         # src/builtin/cd.c:95:24
	movq	88(%rax), %rdi
	.loc	1 95 7                          # src/builtin/cd.c:95:7
	callq	cmd_arg_nbr
	.loc	1 95 35                         # src/builtin/cd.c:95:35
	cmpl	$2, %eax
	.loc	1 96 4 is_stmt 1                # src/builtin/cd.c:96:4
	jne	.LBB3_6
# %bb.4:
	.loc	1 96 23 is_stmt 0               # src/builtin/cd.c:96:23
	movq	-16(%rbp), %rax
	.loc	1 96 28                         # src/builtin/cd.c:96:28
	movq	88(%rax), %rax
	.loc	1 96 23                         # src/builtin/cd.c:96:23
	movq	8(%rax), %rsi
	.loc	1 96 7                          # src/builtin/cd.c:96:7
	movabsq	$.L.str.2, %rdi
	movl	$1, %edx
	callq	ft_strncmp
	.loc	1 96 45                         # src/builtin/cd.c:96:45
	cmpl	$0, %eax
.Ltmp31:
	.loc	1 94 11 is_stmt 1               # src/builtin/cd.c:94:11
	jne	.LBB3_6
.LBB3_5:
.Ltmp32:
	.loc	1 97 11                         # src/builtin/cd.c:97:11
	movq	-8(%rbp), %rdi
	.loc	1 97 3 is_stmt 0                # src/builtin/cd.c:97:3
	callq	cd_home
	jmp	.LBB3_9
.LBB3_6:
.Ltmp33:
	.loc	1 98 17 is_stmt 1               # src/builtin/cd.c:98:17
	movq	-16(%rbp), %rax
	.loc	1 98 22 is_stmt 0               # src/builtin/cd.c:98:22
	movq	88(%rax), %rax
	.loc	1 98 17                         # src/builtin/cd.c:98:17
	movq	8(%rax), %rdi
	.loc	1 98 11                         # src/builtin/cd.c:98:11
	callq	chdir
	.loc	1 98 36                         # src/builtin/cd.c:98:36
	cmpl	$0, %eax
.Ltmp34:
	.loc	1 98 11                         # src/builtin/cd.c:98:11
	je	.LBB3_8
# %bb.7:
.Ltmp35:
	.loc	1 100 31 is_stmt 1              # src/builtin/cd.c:100:31
	movq	-16(%rbp), %rax
	.loc	1 100 36 is_stmt 0              # src/builtin/cd.c:100:36
	movq	88(%rax), %rax
	.loc	1 100 31                        # src/builtin/cd.c:100:31
	movq	8(%rax), %rsi
	.loc	1 100 3                         # src/builtin/cd.c:100:3
	movabsq	$.L.str.3, %rdi
	movb	$0, %al
	callq	ft_printf
	.loc	1 101 3 is_stmt 1               # src/builtin/cd.c:101:3
	movq	-8(%rbp), %rax
	.loc	1 101 26 is_stmt 0              # src/builtin/cd.c:101:26
	movb	$1, 44(%rax)
	.loc	1 102 3 is_stmt 1               # src/builtin/cd.c:102:3
	xorl	%eax, %eax
	movl	%eax, %edi
	callq	perror
.Ltmp36:
.LBB3_8:
	.loc	1 0 3 is_stmt 0                 # src/builtin/cd.c:0:3
	jmp	.LBB3_9
.LBB3_9:
	jmp	.LBB3_10
.LBB3_10:
	.loc	1 105 1 is_stmt 1               # src/builtin/cd.c:105:1
	addq	$16, %rsp
	popq	%rbp
	.cfi_def_cfa %rsp, 8
	retq
.Ltmp37:
.Lfunc_end3:
	.size	cd, .Lfunc_end3-cd
	.cfi_endproc
                                        # -- End function
	.type	.L.str,@object                  # @.str
	.section	.rodata.str1.1,"aMS",@progbits,1
.L.str:
	.asciz	"HOME"
	.size	.L.str, 5

	.type	.L.str.1,@object                # @.str.1
.L.str.1:
	.asciz	"chdir"
	.size	.L.str.1, 6

	.type	.L.str.2,@object                # @.str.2
.L.str.2:
	.asciz	"~"
	.size	.L.str.2, 2

	.type	.L.str.3,@object                # @.str.3
.L.str.3:
	.asciz	"bash: cd: %s: "
	.size	.L.str.3, 15

	.file	2 "/mnt/nfs/homes/cboukhal/42/minishell" "src/builtin/../../include/minishell.h"
	.file	3 "/usr/include" "dirent.h"
	.file	4 "/usr/include" "signal.h"
	.file	5 "/usr/include/x86_64-linux-gnu/bits" "sigaction.h"
	.file	6 "/usr/include/x86_64-linux-gnu/bits/types" "siginfo_t.h"
	.file	7 "/usr/include/x86_64-linux-gnu/bits" "types.h"
	.file	8 "/usr/include/x86_64-linux-gnu/bits/types" "__sigval_t.h"
	.file	9 "/usr/include/x86_64-linux-gnu/bits/types" "__sigset_t.h"
	.file	10 "/usr/include/x86_64-linux-gnu/bits" "struct_stat.h"
	.file	11 "/usr/include/x86_64-linux-gnu/bits/types" "struct_timespec.h"
	.file	12 "/usr/include/x86_64-linux-gnu/bits" "termios.h"
	.file	13 "/usr/include/x86_64-linux-gnu/bits" "termios-struct.h"
	.section	".note.GNU-stack","",@progbits
	.addrsig
	.addrsig_sym got_too_much_arg
	.addrsig_sym get_home_path
	.addrsig_sym ft_strncmp
	.addrsig_sym cd_home
	.addrsig_sym error_cd
	.addrsig_sym chdir
	.addrsig_sym perror
	.addrsig_sym cmd_arg_nbr
	.addrsig_sym ft_printf