	.text
	.file	"exit.c"
	.file	1 "/mnt/nfs/homes/cboukhal/42/minishell" "src/builtin/../../include/minishell.h"
	.globl	is_numeric_string               # -- Begin function is_numeric_string
	.p2align	4, 0x90
	.type	is_numeric_string,@function
is_numeric_string:                      # @is_numeric_string
.Lfunc_begin0:
	.file	2 "/mnt/nfs/homes/cboukhal/42/minishell" "src/builtin/exit.c"
	.loc	2 24 0                          # src/builtin/exit.c:24:0
	.cfi_startproc
# %bb.0:
	pushq	%rbp
	.cfi_def_cfa_offset 16
	.cfi_offset %rbp, -16
	movq	%rsp, %rbp
	.cfi_def_cfa_register %rbp
	subq	$16, %rsp
	movq	%rdi, -16(%rbp)
.Ltmp0:
	.loc	2 25 10 prologue_end            # src/builtin/exit.c:25:10
	cmpq	$0, -16(%rbp)
	.loc	2 25 18 is_stmt 0               # src/builtin/exit.c:25:18
	je	.LBB0_2
# %bb.1:
	.loc	2 25 22                         # src/builtin/exit.c:25:22
	movq	-16(%rbp), %rax
	.loc	2 25 21                         # src/builtin/exit.c:25:21
	movsbl	(%rax), %eax
	.loc	2 25 26                         # src/builtin/exit.c:25:26
	cmpl	$0, %eax
.Ltmp1:
	.loc	2 25 6                          # src/builtin/exit.c:25:6
	jne	.LBB0_3
.LBB0_2:
.Ltmp2:
	.loc	2 26 3 is_stmt 1                # src/builtin/exit.c:26:3
	movb	$0, -1(%rbp)
	jmp	.LBB0_12
.Ltmp3:
.LBB0_3:
	.loc	2 27 7                          # src/builtin/exit.c:27:7
	movq	-16(%rbp), %rax
	.loc	2 27 6 is_stmt 0                # src/builtin/exit.c:27:6
	movsbl	(%rax), %eax
	.loc	2 27 11                         # src/builtin/exit.c:27:11
	cmpl	$45, %eax
	.loc	2 27 18                         # src/builtin/exit.c:27:18
	je	.LBB0_5
# %bb.4:
	.loc	2 27 22                         # src/builtin/exit.c:27:22
	movq	-16(%rbp), %rax
	.loc	2 27 21                         # src/builtin/exit.c:27:21
	movsbl	(%rax), %eax
	.loc	2 27 26                         # src/builtin/exit.c:27:26
	cmpl	$43, %eax
.Ltmp4:
	.loc	2 27 6                          # src/builtin/exit.c:27:6
	jne	.LBB0_6
.LBB0_5:
.Ltmp5:
	.loc	2 28 6 is_stmt 1                # src/builtin/exit.c:28:6
	movq	-16(%rbp), %rax
	addq	$1, %rax
	movq	%rax, -16(%rbp)
.Ltmp6:
.LBB0_6:
	.loc	2 29 2                          # src/builtin/exit.c:29:2
	jmp	.LBB0_7
.LBB0_7:                                # =>This Inner Loop Header: Depth=1
	.loc	2 29 10 is_stmt 0               # src/builtin/exit.c:29:10
	movq	-16(%rbp), %rax
	.loc	2 29 9                          # src/builtin/exit.c:29:9
	movsbl	(%rax), %eax
	.loc	2 29 14                         # src/builtin/exit.c:29:14
	cmpl	$0, %eax
	.loc	2 29 2                          # src/builtin/exit.c:29:2
	je	.LBB0_11
# %bb.8:                                #   in Loop: Header=BB0_7 Depth=1
.Ltmp7:
	.loc	2 31 20 is_stmt 1               # src/builtin/exit.c:31:20
	movq	-16(%rbp), %rax
	.loc	2 31 19 is_stmt 0               # src/builtin/exit.c:31:19
	movsbl	(%rax), %edi
	.loc	2 31 8                          # src/builtin/exit.c:31:8
	callq	ft_isdigit
	cmpl	$0, %eax
.Ltmp8:
	.loc	2 31 7                          # src/builtin/exit.c:31:7
	jne	.LBB0_10
# %bb.9:
.Ltmp9:
	.loc	2 32 4 is_stmt 1                # src/builtin/exit.c:32:4
	movb	$0, -1(%rbp)
	jmp	.LBB0_12
.Ltmp10:
.LBB0_10:                               #   in Loop: Header=BB0_7 Depth=1
	.loc	2 33 6                          # src/builtin/exit.c:33:6
	movq	-16(%rbp), %rax
	addq	$1, %rax
	movq	%rax, -16(%rbp)
.Ltmp11:
	.loc	2 29 2                          # src/builtin/exit.c:29:2
	jmp	.LBB0_7
.LBB0_11:
	.loc	2 35 2                          # src/builtin/exit.c:35:2
	movb	$1, -1(%rbp)
.LBB0_12:
	.loc	2 36 1                          # src/builtin/exit.c:36:1
	movb	-1(%rbp), %al
	andb	$1, %al
	movzbl	%al, %eax
	addq	$16, %rsp
	popq	%rbp
	.cfi_def_cfa %rsp, 8
	retq
.Ltmp12:
.Lfunc_end0:
	.size	is_numeric_string, .Lfunc_end0-is_numeric_string
	.cfi_endproc
                                        # -- End function
	.globl	ft_exit                         # -- Begin function ft_exit
	.p2align	4, 0x90
	.type	ft_exit,@function
ft_exit:                                # @ft_exit
.Lfunc_begin1:
	.loc	2 39 0                          # src/builtin/exit.c:39:0
	.cfi_startproc
# %bb.0:
	pushq	%rbp
	.cfi_def_cfa_offset 16
	.cfi_offset %rbp, -16
	movq	%rsp, %rbp
	.cfi_def_cfa_register %rbp
	subq	$16, %rsp
	movq	%rdi, -8(%rbp)
	movq	%rsi, -16(%rbp)
.Ltmp13:
	.loc	2 40 2 prologue_end             # src/builtin/exit.c:40:2
	movabsq	$.L.str, %rdi
	movb	$0, %al
	callq	ft_printf
.Ltmp14:
	.loc	2 41 18                         # src/builtin/exit.c:41:18
	movq	-16(%rbp), %rax
	.loc	2 41 23 is_stmt 0               # src/builtin/exit.c:41:23
	movq	88(%rax), %rdi
	.loc	2 41 6                          # src/builtin/exit.c:41:6
	callq	cmd_arg_nbr
	.loc	2 41 34                         # src/builtin/exit.c:41:34
	cmpl	$2, %eax
.Ltmp15:
	.loc	2 41 6                          # src/builtin/exit.c:41:6
	jl	.LBB1_9
# %bb.1:
.Ltmp16:
	.loc	2 43 26 is_stmt 1               # src/builtin/exit.c:43:26
	movq	-16(%rbp), %rax
	.loc	2 43 31 is_stmt 0               # src/builtin/exit.c:43:31
	movq	88(%rax), %rax
	.loc	2 43 26                         # src/builtin/exit.c:43:26
	movq	8(%rax), %rdi
	.loc	2 43 8                          # src/builtin/exit.c:43:8
	callq	is_numeric_string
	.loc	2 44 4 is_stmt 1                # src/builtin/exit.c:44:4
	testb	$1, %al
	jne	.LBB1_2
	jmp	.LBB1_3
.LBB1_2:
	.loc	2 44 17 is_stmt 0               # src/builtin/exit.c:44:17
	movq	-16(%rbp), %rax
	.loc	2 44 22                         # src/builtin/exit.c:44:22
	movq	88(%rax), %rax
	.loc	2 44 17                         # src/builtin/exit.c:44:17
	movq	8(%rax), %rdi
	.loc	2 44 7                          # src/builtin/exit.c:44:7
	callq	ft_strlen
	.loc	2 44 36                         # src/builtin/exit.c:44:36
	cmpq	$0, %rax
.Ltmp17:
	.loc	2 43 7 is_stmt 1                # src/builtin/exit.c:43:7
	jne	.LBB1_4
.LBB1_3:
.Ltmp18:
	.loc	2 45 18                         # src/builtin/exit.c:45:18
	movq	-16(%rbp), %rax
	.loc	2 45 23 is_stmt 0               # src/builtin/exit.c:45:23
	movq	88(%rax), %rax
	.loc	2 45 18                         # src/builtin/exit.c:45:18
	movq	8(%rax), %rsi
	.loc	2 45 38                         # src/builtin/exit.c:45:38
	movq	-8(%rbp), %rdx
	.loc	2 45 49                         # src/builtin/exit.c:45:49
	addq	$44, %rdx
	.loc	2 45 4                          # src/builtin/exit.c:45:4
	movl	$1, %edi
	callq	error_exit
	jmp	.LBB1_8
.LBB1_4:
.Ltmp19:
	.loc	2 46 24 is_stmt 1               # src/builtin/exit.c:46:24
	movq	-16(%rbp), %rax
	.loc	2 46 29 is_stmt 0               # src/builtin/exit.c:46:29
	movq	88(%rax), %rdi
	.loc	2 46 12                         # src/builtin/exit.c:46:12
	callq	cmd_arg_nbr
	.loc	2 46 40                         # src/builtin/exit.c:46:40
	cmpl	$2, %eax
.Ltmp20:
	.loc	2 46 12                         # src/builtin/exit.c:46:12
	jle	.LBB1_6
# %bb.5:
.Ltmp21:
	.loc	2 47 25 is_stmt 1               # src/builtin/exit.c:47:25
	movq	-8(%rbp), %rdx
	.loc	2 47 36 is_stmt 0               # src/builtin/exit.c:47:36
	addq	$44, %rdx
	.loc	2 47 4                          # src/builtin/exit.c:47:4
	movl	$2, %edi
	xorl	%eax, %eax
	movl	%eax, %esi
	callq	error_exit
	jmp	.LBB1_7
.LBB1_6:
	.loc	2 49 37 is_stmt 1               # src/builtin/exit.c:49:37
	movq	-16(%rbp), %rax
	.loc	2 49 42 is_stmt 0               # src/builtin/exit.c:49:42
	movq	88(%rax), %rax
	.loc	2 49 37                         # src/builtin/exit.c:49:37
	movq	8(%rax), %rdi
	.loc	2 49 29                         # src/builtin/exit.c:49:29
	callq	ft_atoi
	movb	%al, %cl
	.loc	2 49 4                          # src/builtin/exit.c:49:4
	movq	-8(%rbp), %rax
	.loc	2 49 27                         # src/builtin/exit.c:49:27
	movb	%cl, 44(%rax)
.Ltmp22:
.LBB1_7:
	.loc	2 0 27                          # src/builtin/exit.c:0:27
	jmp	.LBB1_8
.LBB1_8:
	.loc	2 50 2 is_stmt 1                # src/builtin/exit.c:50:2
	jmp	.LBB1_9
.Ltmp23:
.LBB1_9:
	.loc	2 51 2                          # src/builtin/exit.c:51:2
	movq	-8(%rbp), %rax
	.loc	2 51 19 is_stmt 0               # src/builtin/exit.c:51:19
	movl	$1, 8(%rax)
	.loc	2 53 1 is_stmt 1                # src/builtin/exit.c:53:1
	addq	$16, %rsp
	popq	%rbp
	.cfi_def_cfa %rsp, 8
	retq
.Ltmp24:
.Lfunc_end1:
	.size	ft_exit, .Lfunc_end1-ft_exit
	.cfi_endproc
                                        # -- End function
	.type	.L.str,@object                  # @.str
	.section	.rodata.str1.1,"aMS",@progbits,1
.L.str:
	.asciz	"exit\n"
	.size	.L.str, 6

	.file	3 "/usr/include" "dirent.h"
	.file	4 "/usr/include" "signal.h"
	.file	5 "/usr/include/x86_64-linux-gnu/bits" "sigaction.h"
	.file	6 "/usr/include/x86_64-linux-gnu/bits/types" "siginfo_t.h"
	.file	7 "/usr/include/x86_64-linux-gnu/bits" "types.h"
	.file	8 "/usr/include/x86_64-linux-gnu/bits/types" "__sigval_t.h"
	.file	9 "/usr/include/x86_64-linux-gnu/bits/types" "__sigset_t.h"
	.file	10 "/usr/include/x86_64-linux-gnu/bits" "struct_stat.h"
	.file	11 "/usr/include/x86_64-linux-gnu/bits/types" "struct_timespec.h"
	.file	12 "/usr/include/x86_64-linux-gnu/bits" "termios.h"
	.file	13 "/usr/include/x86_64-linux-gnu/bits" "termios-struct.h"
	.section	".note.GNU-stack","",@progbits
	.addrsig
	.addrsig_sym is_numeric_string
	.addrsig_sym ft_isdigit
	.addrsig_sym ft_printf
	.addrsig_sym cmd_arg_nbr
	.addrsig_sym ft_strlen
	.addrsig_sym error_exit
	.addrsig_sym ft_atoi