	.text
	.file	"export.c"
	.globl	get_last_env_variable           # -- Begin function get_last_env_variable
	.p2align	4, 0x90
	.type	get_last_env_variable,@function
get_last_env_variable:                  # @get_last_env_variable
.Lfunc_begin0:
	.file	1 "/mnt/nfs/homes/cboukhal/42/minishell" "src/builtin/export.c"
	.loc	1 32 0                          # src/builtin/export.c:32:0
	.cfi_startproc
# %bb.0:
	pushq	%rbp
	.cfi_def_cfa_offset 16
	.cfi_offset %rbp, -16
	movq	%rsp, %rbp
	.cfi_def_cfa_register %rbp
	movq	%rdi, -8(%rbp)
.Ltmp0:
	.loc	1 35 10 prologue_end            # src/builtin/export.c:35:10
	movq	-8(%rbp), %rax
	.loc	1 35 8 is_stmt 0                # src/builtin/export.c:35:8
	movq	%rax, -16(%rbp)
.LBB0_1:                                # =>This Inner Loop Header: Depth=1
	.loc	1 36 2 is_stmt 1                # src/builtin/export.c:36:2
	cmpq	$0, -16(%rbp)
	je	.LBB0_5
# %bb.2:                                #   in Loop: Header=BB0_1 Depth=1
.Ltmp1:
	.loc	1 38 7                          # src/builtin/export.c:38:7
	movq	-16(%rbp), %rax
	.loc	1 38 19 is_stmt 0               # src/builtin/export.c:38:19
	cmpq	$0, 16(%rax)
.Ltmp2:
	.loc	1 38 7                          # src/builtin/export.c:38:7
	jne	.LBB0_4
# %bb.3:
.Ltmp3:
	.loc	1 39 4 is_stmt 1                # src/builtin/export.c:39:4
	jmp	.LBB0_5
.Ltmp4:
.LBB0_4:                                #   in Loop: Header=BB0_1 Depth=1
	.loc	1 40 11                         # src/builtin/export.c:40:11
	movq	-16(%rbp), %rax
	.loc	1 40 18 is_stmt 0               # src/builtin/export.c:40:18
	movq	16(%rax), %rax
	.loc	1 40 9                          # src/builtin/export.c:40:9
	movq	%rax, -16(%rbp)
.Ltmp5:
	.loc	1 36 2 is_stmt 1                # src/builtin/export.c:36:2
	jmp	.LBB0_1
.LBB0_5:
	.loc	1 42 10                         # src/builtin/export.c:42:10
	movq	-16(%rbp), %rax
	.loc	1 42 2 is_stmt 0                # src/builtin/export.c:42:2
	popq	%rbp
	.cfi_def_cfa %rsp, 8
	retq
.Ltmp6:
.Lfunc_end0:
	.size	get_last_env_variable, .Lfunc_end0-get_last_env_variable
	.cfi_endproc
                                        # -- End function
	.globl	print_export                    # -- Begin function print_export
	.p2align	4, 0x90
	.type	print_export,@function
print_export:                           # @print_export
.Lfunc_begin1:
	.loc	1 46 0 is_stmt 1                # src/builtin/export.c:46:0
	.cfi_startproc
# %bb.0:
	pushq	%rbp
	.cfi_def_cfa_offset 16
	.cfi_offset %rbp, -16
	movq	%rsp, %rbp
	.cfi_def_cfa_register %rbp
	subq	$48, %rsp
	movq	%rdi, -8(%rbp)
	movl	%esi, -12(%rbp)
.LBB1_1:                                # =>This Inner Loop Header: Depth=1
.Ltmp7:
	.loc	1 47 2 prologue_end             # src/builtin/export.c:47:2
	cmpq	$0, -8(%rbp)
	je	.LBB1_3
# %bb.2:                                #   in Loop: Header=BB1_1 Depth=1
.Ltmp8:
	.loc	1 49 9                          # src/builtin/export.c:49:9
	movl	-12(%rbp), %edi
	.loc	1 49 3 is_stmt 0                # src/builtin/export.c:49:3
	movabsq	$.L.str, %rsi
	movl	$11, %edx
	callq	write
	.loc	1 50 9 is_stmt 1                # src/builtin/export.c:50:9
	movl	-12(%rbp), %eax
	movl	%eax, -44(%rbp)                 # 4-byte Spill
	.loc	1 50 13 is_stmt 0               # src/builtin/export.c:50:13
	movq	-8(%rbp), %rax
	.loc	1 50 18                         # src/builtin/export.c:50:18
	movq	(%rax), %rax
	movq	%rax, -40(%rbp)                 # 8-byte Spill
	.loc	1 50 34                         # src/builtin/export.c:50:34
	movq	-8(%rbp), %rax
	.loc	1 50 39                         # src/builtin/export.c:50:39
	movq	(%rax), %rdi
	.loc	1 50 24                         # src/builtin/export.c:50:24
	callq	ft_strlen
	movl	-44(%rbp), %edi                 # 4-byte Reload
	movq	-40(%rbp), %rsi                 # 8-byte Reload
	movq	%rax, %rdx
	.loc	1 50 3                          # src/builtin/export.c:50:3
	callq	write
	.loc	1 51 9 is_stmt 1                # src/builtin/export.c:51:9
	movl	-12(%rbp), %eax
	movl	%eax, -28(%rbp)                 # 4-byte Spill
	.loc	1 51 13 is_stmt 0               # src/builtin/export.c:51:13
	movq	-8(%rbp), %rax
	.loc	1 51 18                         # src/builtin/export.c:51:18
	movq	8(%rax), %rax
	movq	%rax, -24(%rbp)                 # 8-byte Spill
	.loc	1 51 35                         # src/builtin/export.c:51:35
	movq	-8(%rbp), %rax
	.loc	1 51 40                         # src/builtin/export.c:51:40
	movq	8(%rax), %rdi
	.loc	1 51 25                         # src/builtin/export.c:51:25
	callq	ft_strlen
	movl	-28(%rbp), %edi                 # 4-byte Reload
	movq	-24(%rbp), %rsi                 # 8-byte Reload
	movq	%rax, %rdx
	.loc	1 51 3                          # src/builtin/export.c:51:3
	callq	write
	.loc	1 52 9 is_stmt 1                # src/builtin/export.c:52:9
	movl	-12(%rbp), %edi
	.loc	1 52 3 is_stmt 0                # src/builtin/export.c:52:3
	movabsq	$.L.str.1, %rsi
	movl	$1, %edx
	callq	write
	.loc	1 53 9 is_stmt 1                # src/builtin/export.c:53:9
	movq	-8(%rbp), %rax
	.loc	1 53 14 is_stmt 0               # src/builtin/export.c:53:14
	movq	16(%rax), %rax
	.loc	1 53 7                          # src/builtin/export.c:53:7
	movq	%rax, -8(%rbp)
.Ltmp9:
	.loc	1 47 2 is_stmt 1                # src/builtin/export.c:47:2
	jmp	.LBB1_1
.LBB1_3:
	.loc	1 55 1                          # src/builtin/export.c:55:1
	addq	$48, %rsp
	popq	%rbp
	.cfi_def_cfa %rsp, 8
	retq
.Ltmp10:
.Lfunc_end1:
	.size	print_export, .Lfunc_end1-print_export
	.cfi_endproc
                                        # -- End function
	.globl	parse_export_arg                # -- Begin function parse_export_arg
	.p2align	4, 0x90
	.type	parse_export_arg,@function
parse_export_arg:                       # @parse_export_arg
.Lfunc_begin2:
	.loc	1 58 0                          # src/builtin/export.c:58:0
	.cfi_startproc
# %bb.0:
	pushq	%rbp
	.cfi_def_cfa_offset 16
	.cfi_offset %rbp, -16
	movq	%rsp, %rbp
	.cfi_def_cfa_register %rbp
	subq	$64, %rsp
	movq	%rdi, -8(%rbp)
	movq	%rsi, -16(%rbp)
.Ltmp11:
	.loc	1 64 4 prologue_end             # src/builtin/export.c:64:4
	movl	$0, -20(%rbp)
	.loc	1 65 13                         # src/builtin/export.c:65:13
	movq	$0, -32(%rbp)
.LBB2_1:                                # =>This Inner Loop Header: Depth=1
	.loc	1 66 9                          # src/builtin/export.c:66:9
	movq	-16(%rbp), %rcx
	movslq	-20(%rbp), %rdx
	xorl	%eax, %eax
                                        # kill: def $al killed $al killed $eax
	cmpq	$0, (%rcx,%rdx,8)
	movb	%al, -49(%rbp)                  # 1-byte Spill
	.loc	1 66 22 is_stmt 0               # src/builtin/export.c:66:22
	je	.LBB2_3
# %bb.2:                                #   in Loop: Header=BB2_1 Depth=1
	.loc	1 66 25                         # src/builtin/export.c:66:25
	callq	__errno_location
	.loc	1 66 31                         # src/builtin/export.c:66:31
	cmpl	$0, (%rax)
	sete	%al
	movb	%al, -49(%rbp)                  # 1-byte Spill
.LBB2_3:                                #   in Loop: Header=BB2_1 Depth=1
	.loc	1 0 31                          # src/builtin/export.c:0:31
	movb	-49(%rbp), %al                  # 1-byte Reload
	.loc	1 66 2                          # src/builtin/export.c:66:2
	testb	$1, %al
	jne	.LBB2_4
	jmp	.LBB2_10
.LBB2_4:                                #   in Loop: Header=BB2_1 Depth=1
.Ltmp12:
	.loc	1 68 26 is_stmt 1               # src/builtin/export.c:68:26
	movq	-16(%rbp), %rax
	movslq	-20(%rbp), %rcx
	movq	(%rax,%rcx,8), %rdi
	.loc	1 68 8 is_stmt 0                # src/builtin/export.c:68:8
	callq	is_valid_variable
.Ltmp13:
	.loc	1 68 7                          # src/builtin/export.c:68:7
	testb	$1, %al
	jne	.LBB2_6
# %bb.5:                                #   in Loop: Header=BB2_1 Depth=1
.Ltmp14:
	.loc	1 69 20 is_stmt 1               # src/builtin/export.c:69:20
	movq	-16(%rbp), %rax
	movslq	-20(%rbp), %rcx
	movq	(%rax,%rcx,8), %rsi
	.loc	1 69 35 is_stmt 0               # src/builtin/export.c:69:35
	movq	-8(%rbp), %rdx
	.loc	1 69 46                         # src/builtin/export.c:69:46
	addq	$44, %rdx
	.loc	1 69 4                          # src/builtin/export.c:69:4
	movl	$1, %edi
	callq	error_export
.Ltmp15:
.LBB2_6:                                #   in Loop: Header=BB2_1 Depth=1
	.loc	1 70 26 is_stmt 1               # src/builtin/export.c:70:26
	movq	-16(%rbp), %rax
	movslq	-20(%rbp), %rcx
	movq	(%rax,%rcx,8), %rdi
	.loc	1 70 9 is_stmt 0                # src/builtin/export.c:70:9
	callq	get_env_variable
	.loc	1 70 7                          # src/builtin/export.c:70:7
	movq	%rax, -48(%rbp)
.Ltmp16:
	.loc	1 71 8 is_stmt 1                # src/builtin/export.c:71:8
	cmpq	$0, -32(%rbp)
.Ltmp17:
	.loc	1 71 7 is_stmt 0                # src/builtin/export.c:71:7
	jne	.LBB2_8
# %bb.7:                                #   in Loop: Header=BB2_1 Depth=1
.Ltmp18:
	.loc	1 72 17 is_stmt 1               # src/builtin/export.c:72:17
	movq	-48(%rbp), %rax
	.loc	1 72 15 is_stmt 0               # src/builtin/export.c:72:15
	movq	%rax, -32(%rbp)
	.loc	1 72 4                          # src/builtin/export.c:72:4
	jmp	.LBB2_9
.LBB2_8:                                #   in Loop: Header=BB2_1 Depth=1
	.loc	1 74 18 is_stmt 1               # src/builtin/export.c:74:18
	movq	-48(%rbp), %rcx
	.loc	1 74 4 is_stmt 0                # src/builtin/export.c:74:4
	movq	-40(%rbp), %rax
	.loc	1 74 16                         # src/builtin/export.c:74:16
	movq	%rcx, 16(%rax)
.Ltmp19:
.LBB2_9:                                #   in Loop: Header=BB2_1 Depth=1
	.loc	1 75 11 is_stmt 1               # src/builtin/export.c:75:11
	movq	-48(%rbp), %rax
	.loc	1 75 9 is_stmt 0                # src/builtin/export.c:75:9
	movq	%rax, -40(%rbp)
	.loc	1 76 4 is_stmt 1                # src/builtin/export.c:76:4
	movl	-20(%rbp), %eax
	addl	$1, %eax
	movl	%eax, -20(%rbp)
.Ltmp20:
	.loc	1 66 2                          # src/builtin/export.c:66:2
	jmp	.LBB2_1
.LBB2_10:
	.loc	1 78 10                         # src/builtin/export.c:78:10
	movq	-32(%rbp), %rax
	.loc	1 78 2 is_stmt 0                # src/builtin/export.c:78:2
	addq	$64, %rsp
	popq	%rbp
	.cfi_def_cfa %rsp, 8
	retq
.Ltmp21:
.Lfunc_end2:
	.size	parse_export_arg, .Lfunc_end2-parse_export_arg
	.cfi_endproc
                                        # -- End function
	.globl	export                          # -- Begin function export
	.p2align	4, 0x90
	.type	export,@function
export:                                 # @export
.Lfunc_begin3:
	.loc	1 82 0 is_stmt 1                # src/builtin/export.c:82:0
	.cfi_startproc
# %bb.0:
	pushq	%rbp
	.cfi_def_cfa_offset 16
	.cfi_offset %rbp, -16
	movq	%rsp, %rbp
	.cfi_def_cfa_register %rbp
	subq	$48, %rsp
	movq	%rdi, -8(%rbp)
	movq	%rsi, -16(%rbp)
	movq	%rdx, -24(%rbp)
.Ltmp22:
	.loc	1 88 4 prologue_end             # src/builtin/export.c:88:4
	movl	$0, -28(%rbp)
.Ltmp23:
	.loc	1 89 7                          # src/builtin/export.c:89:7
	movq	-24(%rbp), %rax
	cmpq	$0, 88(%rax)
.Ltmp24:
	.loc	1 89 6 is_stmt 0                # src/builtin/export.c:89:6
	jne	.LBB3_2
# %bb.1:
.Ltmp25:
	.loc	1 90 3 is_stmt 1                # src/builtin/export.c:90:3
	jmp	.LBB3_11
.Ltmp26:
.LBB3_2:
	.loc	1 91 6                          # src/builtin/export.c:91:6
	movq	-24(%rbp), %rax
	cmpq	$0, 40(%rax)
	.loc	1 91 16 is_stmt 0               # src/builtin/export.c:91:16
	je	.LBB3_5
# %bb.3:
	.loc	1 91 19                         # src/builtin/export.c:91:19
	movq	-24(%rbp), %rax
	.loc	1 91 24                         # src/builtin/export.c:91:24
	movq	40(%rax), %rax
	.loc	1 91 19                         # src/builtin/export.c:91:19
	cmpq	$0, 8(%rax)
.Ltmp27:
	.loc	1 91 6                          # src/builtin/export.c:91:6
	je	.LBB3_5
# %bb.4:
.Ltmp28:
	.loc	1 92 8 is_stmt 1                # src/builtin/export.c:92:8
	movq	-24(%rbp), %rax
	.loc	1 92 13 is_stmt 0               # src/builtin/export.c:92:13
	movq	40(%rax), %rax
	.loc	1 92 19                         # src/builtin/export.c:92:19
	movq	8(%rax), %rax
	.loc	1 92 8                          # src/builtin/export.c:92:8
	movl	4(%rax), %eax
	.loc	1 92 6                          # src/builtin/export.c:92:6
	movl	%eax, -32(%rbp)
	.loc	1 92 3                          # src/builtin/export.c:92:3
	jmp	.LBB3_6
.LBB3_5:
	.loc	1 94 6 is_stmt 1                # src/builtin/export.c:94:6
	movl	$1, -32(%rbp)
.Ltmp29:
.LBB3_6:
	.loc	1 95 24                         # src/builtin/export.c:95:24
	movq	-24(%rbp), %rax
	.loc	1 95 29 is_stmt 0               # src/builtin/export.c:95:29
	movq	88(%rax), %rdi
	.loc	1 95 12                         # src/builtin/export.c:95:12
	callq	cmd_arg_nbr
	.loc	1 95 10                         # src/builtin/export.c:95:10
	movl	%eax, -36(%rbp)
.Ltmp30:
	.loc	1 96 14 is_stmt 1               # src/builtin/export.c:96:14
	cmpl	$1, -36(%rbp)
.Ltmp31:
	.loc	1 96 6 is_stmt 0                # src/builtin/export.c:96:6
	jne	.LBB3_8
# %bb.7:
.Ltmp32:
	.loc	1 97 18 is_stmt 1               # src/builtin/export.c:97:18
	movq	-16(%rbp), %rax
	.loc	1 97 17 is_stmt 0               # src/builtin/export.c:97:17
	movq	(%rax), %rdi
	.loc	1 97 24                         # src/builtin/export.c:97:24
	movl	-32(%rbp), %esi
	.loc	1 97 3                          # src/builtin/export.c:97:3
	callq	print_export
	jmp	.LBB3_11
.LBB3_8:
.Ltmp33:
	.loc	1 98 19 is_stmt 1               # src/builtin/export.c:98:19
	cmpl	$1, -36(%rbp)
.Ltmp34:
	.loc	1 98 11 is_stmt 0               # src/builtin/export.c:98:11
	jle	.LBB3_10
# %bb.9:
.Ltmp35:
	.loc	1 100 30 is_stmt 1              # src/builtin/export.c:100:30
	movq	-8(%rbp), %rdi
	.loc	1 100 42 is_stmt 0              # src/builtin/export.c:100:42
	movq	-24(%rbp), %rax
	.loc	1 100 47                        # src/builtin/export.c:100:47
	movq	88(%rax), %rsi
	.loc	1 100 42                        # src/builtin/export.c:100:42
	addq	$8, %rsi
	.loc	1 100 13                        # src/builtin/export.c:100:13
	callq	parse_export_arg
	.loc	1 100 11                        # src/builtin/export.c:100:11
	movq	%rax, -48(%rbp)
	.loc	1 101 35 is_stmt 1              # src/builtin/export.c:101:35
	movq	-16(%rbp), %rsi
	.loc	1 101 3 is_stmt 0               # src/builtin/export.c:101:3
	leaq	-48(%rbp), %rdi
	callq	add_new_var_to_env
.Ltmp36:
.LBB3_10:
	.loc	1 0 3                           # src/builtin/export.c:0:3
	jmp	.LBB3_11
.LBB3_11:
	.loc	1 103 1 is_stmt 1               # src/builtin/export.c:103:1
	addq	$48, %rsp
	popq	%rbp
	.cfi_def_cfa %rsp, 8
	retq
.Ltmp37:
.Lfunc_end3:
	.size	export, .Lfunc_end3-export
	.cfi_endproc
                                        # -- End function
	.type	.L.str,@object                  # @.str
	.section	.rodata.str1.1,"aMS",@progbits,1
.L.str:
	.asciz	"declare -x "
	.size	.L.str, 12

	.type	.L.str.1,@object                # @.str.1
.L.str.1:
	.asciz	"\n"
	.size	.L.str.1, 2

	.file	2 "/mnt/nfs/homes/cboukhal/42/minishell" "src/builtin/../../include/minishell.h"
	.file	3 "/usr/include" "dirent.h"
	.file	4 "/usr/include" "signal.h"
	.file	5 "/usr/include/x86_64-linux-gnu/bits" "sigaction.h"
	.file	6 "/usr/include/x86_64-linux-gnu/bits/types" "siginfo_t.h"
	.file	7 "/usr/include/x86_64-linux-gnu/bits" "types.h"
	.file	8 "/usr/include/x86_64-linux-gnu/bits/types" "__sigval_t.h"
	.file	9 "/usr/include/x86_64-linux-gnu/bits/types" "__sigset_t.h"
	.file	10 "/usr/include/x86_64-linux-gnu/bits" "struct_stat.h"
	.file	11 "/usr/include/x86_64-linux-gnu/bits/types" "struct_timespec.h"
	.file	12 "/usr/include/x86_64-linux-gnu/bits" "termios.h"
	.file	13 "/usr/include/x86_64-linux-gnu/bits" "termios-struct.h"
	.section	".note.GNU-stack","",@progbits
	.addrsig
	.addrsig_sym print_export
	.addrsig_sym write
	.addrsig_sym ft_strlen
	.addrsig_sym parse_export_arg
	.addrsig_sym __errno_location
	.addrsig_sym is_valid_variable
	.addrsig_sym error_export
	.addrsig_sym get_env_variable
	.addrsig_sym cmd_arg_nbr
	.addrsig_sym add_new_var_to_env