	.text
	.file	"oldpwd.c"
	.globl	get_oldpwd_attr                 # -- Begin function get_oldpwd_attr
	.p2align	4, 0x90
	.type	get_oldpwd_attr,@function
get_oldpwd_attr:                        # @get_oldpwd_attr
.Lfunc_begin0:
	.file	1 "/mnt/nfs/homes/jbocktor/student/group_minishell/more_hope/minigroups" "src/builtin/oldpwd.c"
	.loc	1 16 0                          # src/builtin/oldpwd.c:16:0
	.cfi_startproc
# %bb.0:
	pushq	%rbp
	.cfi_def_cfa_offset 16
	.cfi_offset %rbp, -16
	movq	%rsp, %rbp
	.cfi_def_cfa_register %rbp
	subq	$16, %rsp
	movq	%rdi, -8(%rbp)
	movq	%rsi, -16(%rbp)
.Ltmp0:
	.loc	1 17 9 prologue_end             # src/builtin/oldpwd.c:17:9
	movq	-8(%rbp), %rax
	.loc	1 17 8 is_stmt 0                # src/builtin/oldpwd.c:17:8
	movq	(%rax), %rax
	.loc	1 17 7                          # src/builtin/oldpwd.c:17:7
	cmpq	$0, (%rax)
.Ltmp1:
	.loc	1 17 6                          # src/builtin/oldpwd.c:17:6
	jne	.LBB0_4
# %bb.1:
.Ltmp2:
	.loc	1 19 21 is_stmt 1               # src/builtin/oldpwd.c:19:21
	movl	$7, %edi
	callq	malloc
	movq	%rax, %rcx
	.loc	1 19 5 is_stmt 0                # src/builtin/oldpwd.c:19:5
	movq	-8(%rbp), %rax
	.loc	1 19 4                          # src/builtin/oldpwd.c:19:4
	movq	(%rax), %rax
	.loc	1 19 19                         # src/builtin/oldpwd.c:19:19
	movq	%rcx, (%rax)
.Ltmp3:
	.loc	1 20 10 is_stmt 1               # src/builtin/oldpwd.c:20:10
	movq	-8(%rbp), %rax
	.loc	1 20 9 is_stmt 0                # src/builtin/oldpwd.c:20:9
	movq	(%rax), %rax
	.loc	1 20 8                          # src/builtin/oldpwd.c:20:8
	cmpq	$0, (%rax)
.Ltmp4:
	.loc	1 20 7                          # src/builtin/oldpwd.c:20:7
	jne	.LBB0_3
# %bb.2:
.Ltmp5:
	.loc	1 22 4 is_stmt 1                # src/builtin/oldpwd.c:22:4
	movabsq	$.L.str, %rdi
	callq	perror
	.loc	1 23 4                          # src/builtin/oldpwd.c:23:4
	jmp	.LBB0_7
.Ltmp6:
.LBB0_3:
	.loc	1 25 16                         # src/builtin/oldpwd.c:25:16
	movq	-8(%rbp), %rax
	.loc	1 25 15 is_stmt 0               # src/builtin/oldpwd.c:25:15
	movq	(%rax), %rax
	.loc	1 25 25                         # src/builtin/oldpwd.c:25:25
	movq	(%rax), %rdi
	.loc	1 25 3                          # src/builtin/oldpwd.c:25:3
	movabsq	$.L.str.1, %rsi
	movl	$7, %edx
	callq	ft_strlcpy
.Ltmp7:
.LBB0_4:
	.loc	1 27 8 is_stmt 1                # src/builtin/oldpwd.c:27:8
	movq	-8(%rbp), %rax
	.loc	1 27 7 is_stmt 0                # src/builtin/oldpwd.c:27:7
	movq	(%rax), %rax
	.loc	1 27 6                          # src/builtin/oldpwd.c:27:6
	cmpq	$0, 8(%rax)
.Ltmp8:
	.loc	1 27 6                          # src/builtin/oldpwd.c:27:6
	je	.LBB0_6
# %bb.5:
.Ltmp9:
	.loc	1 28 10 is_stmt 1               # src/builtin/oldpwd.c:28:10
	movq	-8(%rbp), %rax
	.loc	1 28 9 is_stmt 0                # src/builtin/oldpwd.c:28:9
	movq	(%rax), %rax
	.loc	1 28 19                         # src/builtin/oldpwd.c:28:19
	movq	8(%rax), %rdi
	.loc	1 28 3                          # src/builtin/oldpwd.c:28:3
	callq	free
.Ltmp10:
.LBB0_6:
	.loc	1 29 23 is_stmt 1               # src/builtin/oldpwd.c:29:23
	movq	-16(%rbp), %rax
	.loc	1 29 22 is_stmt 0               # src/builtin/oldpwd.c:29:22
	movq	(%rax), %rax
	.loc	1 29 29                         # src/builtin/oldpwd.c:29:29
	movq	8(%rax), %rcx
	.loc	1 29 4                          # src/builtin/oldpwd.c:29:4
	movq	-8(%rbp), %rax
	.loc	1 29 3                          # src/builtin/oldpwd.c:29:3
	movq	(%rax), %rax
	.loc	1 29 19                         # src/builtin/oldpwd.c:29:19
	movq	%rcx, 8(%rax)
.LBB0_7:
	.loc	1 30 1 is_stmt 1                # src/builtin/oldpwd.c:30:1
	addq	$16, %rsp
	popq	%rbp
	.cfi_def_cfa %rsp, 8
	retq
.Ltmp11:
.Lfunc_end0:
	.size	get_oldpwd_attr, .Lfunc_end0-get_oldpwd_attr
	.cfi_endproc
                                        # -- End function
	.globl	get_oldpwd                      # -- Begin function get_oldpwd
	.p2align	4, 0x90
	.type	get_oldpwd,@function
get_oldpwd:                             # @get_oldpwd
.Lfunc_begin1:
	.loc	1 33 0                          # src/builtin/oldpwd.c:33:0
	.cfi_startproc
# %bb.0:
	pushq	%rbp
	.cfi_def_cfa_offset 16
	.cfi_offset %rbp, -16
	movq	%rsp, %rbp
	.cfi_def_cfa_register %rbp
	subq	$48, %rsp
	movq	%rdi, -16(%rbp)
	movq	%rsi, -24(%rbp)
.Ltmp12:
	.loc	1 37 9 prologue_end             # src/builtin/oldpwd.c:37:9
	movq	$0, -32(%rbp)
	.loc	1 38 12                         # src/builtin/oldpwd.c:38:12
	movq	-16(%rbp), %rax
	.loc	1 38 11 is_stmt 0               # src/builtin/oldpwd.c:38:11
	movq	(%rax), %rax
	.loc	1 38 8                          # src/builtin/oldpwd.c:38:8
	movq	%rax, -40(%rbp)
.LBB1_1:                                # =>This Inner Loop Header: Depth=1
	.loc	1 39 2 is_stmt 1                # src/builtin/oldpwd.c:39:2
	cmpq	$0, -40(%rbp)
	je	.LBB1_5
# %bb.2:                                #   in Loop: Header=BB1_1 Depth=1
.Ltmp13:
	.loc	1 41 18                         # src/builtin/oldpwd.c:41:18
	movq	-40(%rbp), %rax
	.loc	1 41 25 is_stmt 0               # src/builtin/oldpwd.c:41:25
	movq	(%rax), %rdi
	.loc	1 41 7                          # src/builtin/oldpwd.c:41:7
	movabsq	$.L.str.1, %rsi
	movl	$6, %edx
	callq	ft_strncmp
	.loc	1 41 44                         # src/builtin/oldpwd.c:41:44
	cmpl	$0, %eax
.Ltmp14:
	.loc	1 41 7                          # src/builtin/oldpwd.c:41:7
	jne	.LBB1_4
# %bb.3:                                #   in Loop: Header=BB1_1 Depth=1
.Ltmp15:
	.loc	1 42 13 is_stmt 1               # src/builtin/oldpwd.c:42:13
	movq	-40(%rbp), %rax
	.loc	1 42 11 is_stmt 0               # src/builtin/oldpwd.c:42:11
	movq	%rax, -32(%rbp)
.Ltmp16:
.LBB1_4:                                #   in Loop: Header=BB1_1 Depth=1
	.loc	1 43 11 is_stmt 1               # src/builtin/oldpwd.c:43:11
	movq	-40(%rbp), %rax
	.loc	1 43 18 is_stmt 0               # src/builtin/oldpwd.c:43:18
	movq	16(%rax), %rax
	.loc	1 43 9                          # src/builtin/oldpwd.c:43:9
	movq	%rax, -40(%rbp)
.Ltmp17:
	.loc	1 39 2 is_stmt 1                # src/builtin/oldpwd.c:39:2
	jmp	.LBB1_1
.LBB1_5:
.Ltmp18:
	.loc	1 45 7                          # src/builtin/oldpwd.c:45:7
	cmpq	$0, -32(%rbp)
.Ltmp19:
	.loc	1 45 6 is_stmt 0                # src/builtin/oldpwd.c:45:6
	jne	.LBB1_9
# %bb.6:
.Ltmp20:
	.loc	1 47 12 is_stmt 1               # src/builtin/oldpwd.c:47:12
	movl	$24, %edi
	callq	malloc
	.loc	1 47 10 is_stmt 0               # src/builtin/oldpwd.c:47:10
	movq	%rax, -32(%rbp)
.Ltmp21:
	.loc	1 48 8 is_stmt 1                # src/builtin/oldpwd.c:48:8
	cmpq	$0, -32(%rbp)
.Ltmp22:
	.loc	1 48 7 is_stmt 0                # src/builtin/oldpwd.c:48:7
	jne	.LBB1_8
# %bb.7:
.Ltmp23:
	.loc	1 49 12 is_stmt 1               # src/builtin/oldpwd.c:49:12
	movabsq	$.L.str, %rdi
	callq	perror
	.loc	1 49 4 is_stmt 0                # src/builtin/oldpwd.c:49:4
	movq	$0, -8(%rbp)
	jmp	.LBB1_10
.Ltmp24:
.LBB1_8:
	.loc	1 50 3 is_stmt 1                # src/builtin/oldpwd.c:50:3
	leaq	-32(%rbp), %rdi
	callq	init_env_var_attr
.Ltmp25:
.LBB1_9:
	.loc	1 52 2                          # src/builtin/oldpwd.c:52:2
	leaq	-32(%rbp), %rdi
	leaq	-24(%rbp), %rsi
	callq	get_oldpwd_attr
	.loc	1 53 10                         # src/builtin/oldpwd.c:53:10
	movq	-32(%rbp), %rax
	.loc	1 53 2 is_stmt 0                # src/builtin/oldpwd.c:53:2
	movq	%rax, -8(%rbp)
.LBB1_10:
	.loc	1 54 1 is_stmt 1                # src/builtin/oldpwd.c:54:1
	movq	-8(%rbp), %rax
	addq	$48, %rsp
	popq	%rbp
	.cfi_def_cfa %rsp, 8
	retq
.Ltmp26:
.Lfunc_end1:
	.size	get_oldpwd, .Lfunc_end1-get_oldpwd
	.cfi_endproc
                                        # -- End function
	.type	.L.str,@object                  # @.str
	.section	.rodata.str1.1,"aMS",@progbits,1
.L.str:
	.asciz	"malloc"
	.size	.L.str, 7

	.type	.L.str.1,@object                # @.str.1
.L.str.1:
	.asciz	"OLDPWD"
	.size	.L.str.1, 7

	.file	2 "/mnt/nfs/homes/jbocktor/student/group_minishell/more_hope/minigroups" "src/builtin/../../include/minishell.h"
	.section	".note.GNU-stack","",@progbits
	.addrsig
	.addrsig_sym get_oldpwd_attr
	.addrsig_sym malloc
	.addrsig_sym perror
	.addrsig_sym ft_strlcpy
	.addrsig_sym free
	.addrsig_sym ft_strncmp
	.addrsig_sym init_env_var_attr