	.text
	.file	"pwd.c"
	.globl	get_oldpwd_attr                 # -- Begin function get_oldpwd_attr
	.p2align	4, 0x90
	.type	get_oldpwd_attr,@function
get_oldpwd_attr:                        # @get_oldpwd_attr
.Lfunc_begin0:
	.file	1 "/mnt/nfs/homes/cboukhal/minishell" "src/builtin/pwd.c"
	.loc	1 28 0                          # src/builtin/pwd.c:28:0
	.cfi_startproc
# %bb.0:
	pushq	%rbp
	.cfi_def_cfa_offset 16
	.cfi_offset %rbp, -16
	movq	%rsp, %rbp
	.cfi_def_cfa_register %rbp
	subq	$16, %rsp
	movq	%rdi, -8(%rbp)
	movq	%rsi, -16(%rbp)
.Ltmp0:
	.loc	1 29 9 prologue_end             # src/builtin/pwd.c:29:9
	movq	-8(%rbp), %rax
	.loc	1 29 8 is_stmt 0                # src/builtin/pwd.c:29:8
	movq	(%rax), %rax
	.loc	1 29 7                          # src/builtin/pwd.c:29:7
	cmpq	$0, (%rax)
.Ltmp1:
	.loc	1 29 6                          # src/builtin/pwd.c:29:6
	jne	.LBB0_4
# %bb.1:
.Ltmp2:
	.loc	1 31 21 is_stmt 1               # src/builtin/pwd.c:31:21
	movl	$7, %edi
	callq	malloc
	movq	%rax, %rcx
	.loc	1 31 5 is_stmt 0                # src/builtin/pwd.c:31:5
	movq	-8(%rbp), %rax
	.loc	1 31 4                          # src/builtin/pwd.c:31:4
	movq	(%rax), %rax
	.loc	1 31 19                         # src/builtin/pwd.c:31:19
	movq	%rcx, (%rax)
.Ltmp3:
	.loc	1 32 10 is_stmt 1               # src/builtin/pwd.c:32:10
	movq	-8(%rbp), %rax
	.loc	1 32 9 is_stmt 0                # src/builtin/pwd.c:32:9
	movq	(%rax), %rax
	.loc	1 32 8                          # src/builtin/pwd.c:32:8
	cmpq	$0, (%rax)
.Ltmp4:
	.loc	1 32 7                          # src/builtin/pwd.c:32:7
	jne	.LBB0_3
# %bb.2:
.Ltmp5:
	.loc	1 34 4 is_stmt 1                # src/builtin/pwd.c:34:4
	movabsq	$.L.str, %rdi
	callq	perror
	.loc	1 35 4                          # src/builtin/pwd.c:35:4
	jmp	.LBB0_7
.Ltmp6:
.LBB0_3:
	.loc	1 37 16                         # src/builtin/pwd.c:37:16
	movq	-8(%rbp), %rax
	.loc	1 37 15 is_stmt 0               # src/builtin/pwd.c:37:15
	movq	(%rax), %rax
	.loc	1 37 25                         # src/builtin/pwd.c:37:25
	movq	(%rax), %rdi
	.loc	1 37 3                          # src/builtin/pwd.c:37:3
	movabsq	$.L.str.1, %rsi
	movl	$7, %edx
	callq	ft_strlcpy
.Ltmp7:
.LBB0_4:
	.loc	1 39 8 is_stmt 1                # src/builtin/pwd.c:39:8
	movq	-8(%rbp), %rax
	.loc	1 39 7 is_stmt 0                # src/builtin/pwd.c:39:7
	movq	(%rax), %rax
	.loc	1 39 6                          # src/builtin/pwd.c:39:6
	cmpq	$0, 8(%rax)
.Ltmp8:
	.loc	1 39 6                          # src/builtin/pwd.c:39:6
	je	.LBB0_6
# %bb.5:
.Ltmp9:
	.loc	1 40 10 is_stmt 1               # src/builtin/pwd.c:40:10
	movq	-8(%rbp), %rax
	.loc	1 40 9 is_stmt 0                # src/builtin/pwd.c:40:9
	movq	(%rax), %rax
	.loc	1 40 19                         # src/builtin/pwd.c:40:19
	movq	8(%rax), %rdi
	.loc	1 40 3                          # src/builtin/pwd.c:40:3
	callq	free
.Ltmp10:
.LBB0_6:
	.loc	1 41 23 is_stmt 1               # src/builtin/pwd.c:41:23
	movq	-16(%rbp), %rax
	.loc	1 41 22 is_stmt 0               # src/builtin/pwd.c:41:22
	movq	(%rax), %rax
	.loc	1 41 29                         # src/builtin/pwd.c:41:29
	movq	8(%rax), %rcx
	.loc	1 41 4                          # src/builtin/pwd.c:41:4
	movq	-8(%rbp), %rax
	.loc	1 41 3                          # src/builtin/pwd.c:41:3
	movq	(%rax), %rax
	.loc	1 41 19                         # src/builtin/pwd.c:41:19
	movq	%rcx, 8(%rax)
.LBB0_7:
	.loc	1 42 1 is_stmt 1                # src/builtin/pwd.c:42:1
	addq	$16, %rsp
	popq	%rbp
	.cfi_def_cfa %rsp, 8
	retq
.Ltmp11:
.Lfunc_end0:
	.size	get_oldpwd_attr, .Lfunc_end0-get_oldpwd_attr
	.cfi_endproc
                                        # -- End function
	.globl	get_oldpwd                      # -- Begin function get_oldpwd
	.p2align	4, 0x90
	.type	get_oldpwd,@function
get_oldpwd:                             # @get_oldpwd
.Lfunc_begin1:
	.loc	1 45 0                          # src/builtin/pwd.c:45:0
	.cfi_startproc
# %bb.0:
	pushq	%rbp
	.cfi_def_cfa_offset 16
	.cfi_offset %rbp, -16
	movq	%rsp, %rbp
	.cfi_def_cfa_register %rbp
	subq	$48, %rsp
	movq	%rdi, -16(%rbp)
	movq	%rsi, -24(%rbp)
.Ltmp12:
	.loc	1 49 9 prologue_end             # src/builtin/pwd.c:49:9
	movq	$0, -32(%rbp)
	.loc	1 50 12                         # src/builtin/pwd.c:50:12
	movq	-16(%rbp), %rax
	.loc	1 50 11 is_stmt 0               # src/builtin/pwd.c:50:11
	movq	(%rax), %rax
	.loc	1 50 8                          # src/builtin/pwd.c:50:8
	movq	%rax, -40(%rbp)
.LBB1_1:                                # =>This Inner Loop Header: Depth=1
	.loc	1 51 2 is_stmt 1                # src/builtin/pwd.c:51:2
	cmpq	$0, -40(%rbp)
	je	.LBB1_5
# %bb.2:                                #   in Loop: Header=BB1_1 Depth=1
.Ltmp13:
	.loc	1 53 18                         # src/builtin/pwd.c:53:18
	movq	-40(%rbp), %rax
	.loc	1 53 25 is_stmt 0               # src/builtin/pwd.c:53:25
	movq	(%rax), %rdi
	.loc	1 53 7                          # src/builtin/pwd.c:53:7
	movabsq	$.L.str.1, %rsi
	movl	$6, %edx
	callq	ft_strncmp
	.loc	1 53 44                         # src/builtin/pwd.c:53:44
	cmpl	$0, %eax
.Ltmp14:
	.loc	1 53 7                          # src/builtin/pwd.c:53:7
	jne	.LBB1_4
# %bb.3:                                #   in Loop: Header=BB1_1 Depth=1
.Ltmp15:
	.loc	1 54 13 is_stmt 1               # src/builtin/pwd.c:54:13
	movq	-40(%rbp), %rax
	.loc	1 54 11 is_stmt 0               # src/builtin/pwd.c:54:11
	movq	%rax, -32(%rbp)
.Ltmp16:
.LBB1_4:                                #   in Loop: Header=BB1_1 Depth=1
	.loc	1 55 11 is_stmt 1               # src/builtin/pwd.c:55:11
	movq	-40(%rbp), %rax
	.loc	1 55 18 is_stmt 0               # src/builtin/pwd.c:55:18
	movq	16(%rax), %rax
	.loc	1 55 9                          # src/builtin/pwd.c:55:9
	movq	%rax, -40(%rbp)
.Ltmp17:
	.loc	1 51 2 is_stmt 1                # src/builtin/pwd.c:51:2
	jmp	.LBB1_1
.LBB1_5:
.Ltmp18:
	.loc	1 57 7                          # src/builtin/pwd.c:57:7
	cmpq	$0, -32(%rbp)
.Ltmp19:
	.loc	1 57 6 is_stmt 0                # src/builtin/pwd.c:57:6
	jne	.LBB1_9
# %bb.6:
.Ltmp20:
	.loc	1 59 12 is_stmt 1               # src/builtin/pwd.c:59:12
	movl	$24, %edi
	callq	malloc
	.loc	1 59 10 is_stmt 0               # src/builtin/pwd.c:59:10
	movq	%rax, -32(%rbp)
.Ltmp21:
	.loc	1 60 8 is_stmt 1                # src/builtin/pwd.c:60:8
	cmpq	$0, -32(%rbp)
.Ltmp22:
	.loc	1 60 7 is_stmt 0                # src/builtin/pwd.c:60:7
	jne	.LBB1_8
# %bb.7:
.Ltmp23:
	.loc	1 61 12 is_stmt 1               # src/builtin/pwd.c:61:12
	movabsq	$.L.str, %rdi
	callq	perror
	.loc	1 61 4 is_stmt 0                # src/builtin/pwd.c:61:4
	movq	$0, -8(%rbp)
	jmp	.LBB1_10
.Ltmp24:
.LBB1_8:
	.loc	1 62 3 is_stmt 1                # src/builtin/pwd.c:62:3
	leaq	-32(%rbp), %rdi
	callq	init_env_var_attr
.Ltmp25:
.LBB1_9:
	.loc	1 64 2                          # src/builtin/pwd.c:64:2
	leaq	-32(%rbp), %rdi
	leaq	-24(%rbp), %rsi
	callq	get_oldpwd_attr
	.loc	1 65 10                         # src/builtin/pwd.c:65:10
	movq	-32(%rbp), %rax
	.loc	1 65 2 is_stmt 0                # src/builtin/pwd.c:65:2
	movq	%rax, -8(%rbp)
.LBB1_10:
	.loc	1 66 1 is_stmt 1                # src/builtin/pwd.c:66:1
	movq	-8(%rbp), %rax
	addq	$48, %rsp
	popq	%rbp
	.cfi_def_cfa %rsp, 8
	retq
.Ltmp26:
.Lfunc_end1:
	.size	get_oldpwd, .Lfunc_end1-get_oldpwd
	.cfi_endproc
                                        # -- End function
	.globl	get_env_pwd                     # -- Begin function get_env_pwd
	.p2align	4, 0x90
	.type	get_env_pwd,@function
get_env_pwd:                            # @get_env_pwd
.Lfunc_begin2:
	.loc	1 69 0                          # src/builtin/pwd.c:69:0
	.cfi_startproc
# %bb.0:
	pushq	%rbp
	.cfi_def_cfa_offset 16
	.cfi_offset %rbp, -16
	movq	%rsp, %rbp
	.cfi_def_cfa_register %rbp
	subq	$32, %rsp
	movq	%rdi, -16(%rbp)
.Ltmp27:
	.loc	1 72 12 prologue_end            # src/builtin/pwd.c:72:12
	movq	-16(%rbp), %rax
	.loc	1 72 11 is_stmt 0               # src/builtin/pwd.c:72:11
	movq	(%rax), %rax
	.loc	1 72 8                          # src/builtin/pwd.c:72:8
	movq	%rax, -24(%rbp)
.LBB2_1:                                # =>This Inner Loop Header: Depth=1
	.loc	1 73 9 is_stmt 1                # src/builtin/pwd.c:73:9
	xorl	%eax, %eax
                                        # kill: def $al killed $al killed $eax
	cmpq	$0, -24(%rbp)
	movb	%al, -25(%rbp)                  # 1-byte Spill
	.loc	1 73 15 is_stmt 0               # src/builtin/pwd.c:73:15
	je	.LBB2_3
# %bb.2:                                #   in Loop: Header=BB2_1 Depth=1
	.loc	1 73 18                         # src/builtin/pwd.c:73:18
	callq	__errno_location
	.loc	1 73 24                         # src/builtin/pwd.c:73:24
	cmpl	$0, (%rax)
	sete	%al
	movb	%al, -25(%rbp)                  # 1-byte Spill
.LBB2_3:                                #   in Loop: Header=BB2_1 Depth=1
	.loc	1 0 24                          # src/builtin/pwd.c:0:24
	movb	-25(%rbp), %al                  # 1-byte Reload
	.loc	1 73 2                          # src/builtin/pwd.c:73:2
	testb	$1, %al
	jne	.LBB2_4
	jmp	.LBB2_7
.LBB2_4:                                #   in Loop: Header=BB2_1 Depth=1
.Ltmp28:
	.loc	1 75 18 is_stmt 1               # src/builtin/pwd.c:75:18
	movq	-24(%rbp), %rax
	.loc	1 75 25 is_stmt 0               # src/builtin/pwd.c:75:25
	movq	(%rax), %rdi
	.loc	1 75 7                          # src/builtin/pwd.c:75:7
	movabsq	$.L.str.2, %rsi
	movl	$3, %edx
	callq	ft_strncmp
	.loc	1 75 41                         # src/builtin/pwd.c:75:41
	cmpl	$0, %eax
.Ltmp29:
	.loc	1 75 7                          # src/builtin/pwd.c:75:7
	jne	.LBB2_6
# %bb.5:
.Ltmp30:
	.loc	1 76 12 is_stmt 1               # src/builtin/pwd.c:76:12
	movq	-24(%rbp), %rax
	.loc	1 76 4 is_stmt 0                # src/builtin/pwd.c:76:4
	movq	%rax, -8(%rbp)
	jmp	.LBB2_8
.Ltmp31:
.LBB2_6:                                #   in Loop: Header=BB2_1 Depth=1
	.loc	1 77 11 is_stmt 1               # src/builtin/pwd.c:77:11
	movq	-24(%rbp), %rax
	.loc	1 77 18 is_stmt 0               # src/builtin/pwd.c:77:18
	movq	16(%rax), %rax
	.loc	1 77 9                          # src/builtin/pwd.c:77:9
	movq	%rax, -24(%rbp)
.Ltmp32:
	.loc	1 73 2 is_stmt 1                # src/builtin/pwd.c:73:2
	jmp	.LBB2_1
.LBB2_7:
	.loc	1 79 2                          # src/builtin/pwd.c:79:2
	movq	$0, -8(%rbp)
.LBB2_8:
	.loc	1 80 1                          # src/builtin/pwd.c:80:1
	movq	-8(%rbp), %rax
	addq	$32, %rsp
	popq	%rbp
	.cfi_def_cfa %rsp, 8
	retq
.Ltmp33:
.Lfunc_end2:
	.size	get_env_pwd, .Lfunc_end2-get_env_pwd
	.cfi_endproc
                                        # -- End function
	.globl	pwd                             # -- Begin function pwd
	.p2align	4, 0x90
	.type	pwd,@function
pwd:                                    # @pwd
.Lfunc_begin3:
	.loc	1 83 0                          # src/builtin/pwd.c:83:0
	.cfi_startproc
# %bb.0:
	pushq	%rbp
	.cfi_def_cfa_offset 16
	.cfi_offset %rbp, -16
	movq	%rsp, %rbp
	.cfi_def_cfa_register %rbp
	subq	$80, %rsp
	movq	%rdi, -8(%rbp)
	movq	%rsi, -16(%rbp)
.Ltmp34:
	.loc	1 90 5 prologue_end             # src/builtin/pwd.c:90:5
	movl	$1, -20(%rbp)
	.loc	1 91 8                          # src/builtin/pwd.c:91:8
	xorl	%eax, %eax
	movl	%eax, %edi
	movl	$4096, %esi                     # imm = 0x1000
	callq	getcwd
	.loc	1 91 6 is_stmt 0                # src/builtin/pwd.c:91:6
	movq	%rax, -32(%rbp)
	.loc	1 92 21 is_stmt 1               # src/builtin/pwd.c:92:21
	movq	-8(%rbp), %rdi
	.loc	1 92 32 is_stmt 0               # src/builtin/pwd.c:92:32
	addq	$56, %rdi
	.loc	1 92 8                          # src/builtin/pwd.c:92:8
	callq	get_env_pwd
	.loc	1 92 6                          # src/builtin/pwd.c:92:6
	movq	%rax, -40(%rbp)
.Ltmp35:
	.loc	1 93 6 is_stmt 1                # src/builtin/pwd.c:93:6
	cmpq	$0, -40(%rbp)
.Ltmp36:
	.loc	1 93 6 is_stmt 0                # src/builtin/pwd.c:93:6
	je	.LBB3_5
# %bb.1:
.Ltmp37:
	.loc	1 95 24 is_stmt 1               # src/builtin/pwd.c:95:24
	movq	-8(%rbp), %rdi
	.loc	1 95 35 is_stmt 0               # src/builtin/pwd.c:95:35
	addq	$56, %rdi
	.loc	1 95 40                         # src/builtin/pwd.c:95:40
	movq	-40(%rbp), %rsi
	.loc	1 95 12                         # src/builtin/pwd.c:95:12
	callq	get_oldpwd
	.loc	1 95 10                         # src/builtin/pwd.c:95:10
	movq	%rax, -48(%rbp)
.Ltmp38:
	.loc	1 96 18 is_stmt 1               # src/builtin/pwd.c:96:18
	movq	-40(%rbp), %rax
	.loc	1 96 23 is_stmt 0               # src/builtin/pwd.c:96:23
	movq	(%rax), %rax
	movq	%rax, -64(%rbp)                 # 8-byte Spill
	.loc	1 96 29                         # src/builtin/pwd.c:96:29
	movq	-48(%rbp), %rax
	.loc	1 96 37                         # src/builtin/pwd.c:96:37
	movq	(%rax), %rax
	movq	%rax, -56(%rbp)                 # 8-byte Spill
	.loc	1 96 53                         # src/builtin/pwd.c:96:53
	movq	-40(%rbp), %rax
	.loc	1 96 58                         # src/builtin/pwd.c:96:58
	movq	(%rax), %rdi
	.loc	1 96 43                         # src/builtin/pwd.c:96:43
	callq	ft_strlen
	movq	-64(%rbp), %rdi                 # 8-byte Reload
	movq	-56(%rbp), %rsi                 # 8-byte Reload
	movq	%rax, %rdx
	.loc	1 96 7                          # src/builtin/pwd.c:96:7
	callq	ft_strncmp
	.loc	1 96 65                         # src/builtin/pwd.c:96:65
	cmpl	$0, %eax
.Ltmp39:
	.loc	1 96 7                          # src/builtin/pwd.c:96:7
	jne	.LBB3_3
# %bb.2:
.Ltmp40:
	.loc	1 97 9 is_stmt 1                # src/builtin/pwd.c:97:9
	movq	-32(%rbp), %rdi
	.loc	1 97 4 is_stmt 0                # src/builtin/pwd.c:97:4
	callq	free
	jmp	.LBB3_4
.LBB3_3:
	.loc	1 99 17 is_stmt 1               # src/builtin/pwd.c:99:17
	movq	-32(%rbp), %rcx
	.loc	1 99 4 is_stmt 0                # src/builtin/pwd.c:99:4
	movq	-40(%rbp), %rax
	.loc	1 99 15                         # src/builtin/pwd.c:99:15
	movq	%rcx, 8(%rax)
.Ltmp41:
.LBB3_4:
	.loc	1 100 2 is_stmt 1               # src/builtin/pwd.c:100:2
	jmp	.LBB3_5
.Ltmp42:
.LBB3_5:
	.loc	1 101 6                         # src/builtin/pwd.c:101:6
	movq	-16(%rbp), %rax
	cmpq	$0, 40(%rax)
	.loc	1 101 16 is_stmt 0              # src/builtin/pwd.c:101:16
	je	.LBB3_8
# %bb.6:
	.loc	1 101 19                        # src/builtin/pwd.c:101:19
	movq	-16(%rbp), %rax
	.loc	1 101 24                        # src/builtin/pwd.c:101:24
	movq	40(%rax), %rax
	.loc	1 101 19                        # src/builtin/pwd.c:101:19
	cmpq	$0, 8(%rax)
.Ltmp43:
	.loc	1 101 6                         # src/builtin/pwd.c:101:6
	je	.LBB3_8
# %bb.7:
.Ltmp44:
	.loc	1 102 8 is_stmt 1               # src/builtin/pwd.c:102:8
	movq	-16(%rbp), %rax
	.loc	1 102 13 is_stmt 0              # src/builtin/pwd.c:102:13
	movq	40(%rax), %rax
	.loc	1 102 19                        # src/builtin/pwd.c:102:19
	movq	8(%rax), %rax
	.loc	1 102 8                         # src/builtin/pwd.c:102:8
	movl	4(%rax), %eax
	.loc	1 102 6                         # src/builtin/pwd.c:102:6
	movl	%eax, -20(%rbp)
.Ltmp45:
.LBB3_8:
	.loc	1 103 8 is_stmt 1               # src/builtin/pwd.c:103:8
	movl	-20(%rbp), %eax
	movl	%eax, -76(%rbp)                 # 4-byte Spill
	.loc	1 103 12 is_stmt 0              # src/builtin/pwd.c:103:12
	movq	-32(%rbp), %rax
	movq	%rax, -72(%rbp)                 # 8-byte Spill
	.loc	1 103 27                        # src/builtin/pwd.c:103:27
	movq	-32(%rbp), %rdi
	.loc	1 103 17                        # src/builtin/pwd.c:103:17
	callq	ft_strlen
	movl	-76(%rbp), %edi                 # 4-byte Reload
	movq	-72(%rbp), %rsi                 # 8-byte Reload
	movq	%rax, %rdx
	.loc	1 103 2                         # src/builtin/pwd.c:103:2
	callq	write
	.loc	1 104 8 is_stmt 1               # src/builtin/pwd.c:104:8
	movl	-20(%rbp), %edi
	.loc	1 104 2 is_stmt 0               # src/builtin/pwd.c:104:2
	movabsq	$.L.str.3, %rsi
	movl	$1, %edx
	callq	write
	.loc	1 105 1 is_stmt 1               # src/builtin/pwd.c:105:1
	addq	$80, %rsp
	popq	%rbp
	.cfi_def_cfa %rsp, 8
	retq
.Ltmp46:
.Lfunc_end3:
	.size	pwd, .Lfunc_end3-pwd
	.cfi_endproc
                                        # -- End function
	.type	.L.str,@object                  # @.str
	.section	.rodata.str1.1,"aMS",@progbits,1
.L.str:
	.asciz	"malloc"
	.size	.L.str, 7

	.type	.L.str.1,@object                # @.str.1
.L.str.1:
	.asciz	"OLDPWD"
	.size	.L.str.1, 7

	.type	.L.str.2,@object                # @.str.2
.L.str.2:
	.asciz	"PWD"
	.size	.L.str.2, 4

	.type	.L.str.3,@object                # @.str.3
.L.str.3:
	.asciz	"\n"
	.size	.L.str.3, 2

	.file	2 "/mnt/nfs/homes/cboukhal/minishell" "src/builtin/../../include/minishell.h"
	.file	3 "/usr/include" "dirent.h"
	.file	4 "/usr/include" "signal.h"
	.file	5 "/usr/include/x86_64-linux-gnu/bits" "sigaction.h"
	.file	6 "/usr/include/x86_64-linux-gnu/bits/types" "siginfo_t.h"
	.file	7 "/usr/include/x86_64-linux-gnu/bits" "types.h"
	.file	8 "/usr/include/x86_64-linux-gnu/bits/types" "__sigval_t.h"
	.file	9 "/usr/include/x86_64-linux-gnu/bits/types" "__sigset_t.h"
	.file	10 "/usr/include/x86_64-linux-gnu/bits" "struct_stat.h"
	.file	11 "/usr/include/x86_64-linux-gnu/bits/types" "struct_timespec.h"
	.file	12 "/usr/include/x86_64-linux-gnu/bits" "termios.h"
	.file	13 "/usr/include/x86_64-linux-gnu/bits" "termios-struct.h"
	.section	".note.GNU-stack","",@progbits
	.addrsig
	.addrsig_sym get_oldpwd_attr
	.addrsig_sym malloc
	.addrsig_sym perror
	.addrsig_sym ft_strlcpy
	.addrsig_sym free
	.addrsig_sym get_oldpwd
	.addrsig_sym ft_strncmp
	.addrsig_sym init_env_var_attr
	.addrsig_sym get_env_pwd
	.addrsig_sym __errno_location
	.addrsig_sym getcwd
	.addrsig_sym ft_strlen
	.addrsig_sym write