	.text
	.file	"unset.c"
	.globl	unset_variable                  # -- Begin function unset_variable
	.p2align	4, 0x90
	.type	unset_variable,@function
unset_variable:                         # @unset_variable
.Lfunc_begin0:
	.file	1 "/mnt/nfs/homes/cboukhal/42/minishell" "src/builtin/unset.c"
	.loc	1 40 0                          # src/builtin/unset.c:40:0
	.cfi_startproc
# %bb.0:
	pushq	%rbp
	.cfi_def_cfa_offset 16
	.cfi_offset %rbp, -16
	movq	%rsp, %rbp
	.cfi_def_cfa_register %rbp
	subq	$48, %rsp
	movq	%rdi, -8(%rbp)
	movq	%rsi, -16(%rbp)
.Ltmp0:
	.loc	1 44 12 prologue_end            # src/builtin/unset.c:44:12
	movq	-8(%rbp), %rax
	.loc	1 44 11 is_stmt 0               # src/builtin/unset.c:44:11
	movq	(%rax), %rax
	.loc	1 44 8                          # src/builtin/unset.c:44:8
	movq	%rax, -24(%rbp)
	.loc	1 45 7 is_stmt 1                # src/builtin/unset.c:45:7
	movq	$0, -32(%rbp)
.LBB0_1:                                # =>This Inner Loop Header: Depth=1
	.loc	1 46 2                          # src/builtin/unset.c:46:2
	cmpq	$0, -24(%rbp)
	je	.LBB0_7
# %bb.2:                                #   in Loop: Header=BB0_1 Depth=1
.Ltmp1:
	.loc	1 48 18                         # src/builtin/unset.c:48:18
	movq	-24(%rbp), %rax
	.loc	1 48 25 is_stmt 0               # src/builtin/unset.c:48:25
	movq	(%rax), %rax
	movq	%rax, -48(%rbp)                 # 8-byte Spill
	.loc	1 48 31                         # src/builtin/unset.c:48:31
	movq	-16(%rbp), %rax
	movq	%rax, -40(%rbp)                 # 8-byte Spill
	.loc	1 48 46                         # src/builtin/unset.c:48:46
	movq	-24(%rbp), %rax
	.loc	1 48 53                         # src/builtin/unset.c:48:53
	movq	(%rax), %rdi
	.loc	1 48 36                         # src/builtin/unset.c:48:36
	callq	ft_strlen
	movq	-48(%rbp), %rdi                 # 8-byte Reload
	movq	-40(%rbp), %rsi                 # 8-byte Reload
	movq	%rax, %rdx
	.loc	1 48 7                          # src/builtin/unset.c:48:7
	callq	ft_strncmp
	.loc	1 48 60                         # src/builtin/unset.c:48:60
	cmpl	$0, %eax
.Ltmp2:
	.loc	1 48 7                          # src/builtin/unset.c:48:7
	jne	.LBB0_6
# %bb.3:
.Ltmp3:
	.loc	1 50 8 is_stmt 1                # src/builtin/unset.c:50:8
	cmpq	$0, -32(%rbp)
.Ltmp4:
	.loc	1 50 8 is_stmt 0                # src/builtin/unset.c:50:8
	je	.LBB0_5
# %bb.4:
.Ltmp5:
	.loc	1 51 18 is_stmt 1               # src/builtin/unset.c:51:18
	movq	-24(%rbp), %rax
	.loc	1 51 25 is_stmt 0               # src/builtin/unset.c:51:25
	movq	16(%rax), %rcx
	.loc	1 51 5                          # src/builtin/unset.c:51:5
	movq	-32(%rbp), %rax
	.loc	1 51 16                         # src/builtin/unset.c:51:16
	movq	%rcx, 16(%rax)
.Ltmp6:
.LBB0_5:
	.loc	1 52 9 is_stmt 1                # src/builtin/unset.c:52:9
	movq	-24(%rbp), %rax
	.loc	1 52 16 is_stmt 0               # src/builtin/unset.c:52:16
	movq	8(%rax), %rdi
	.loc	1 52 4                          # src/builtin/unset.c:52:4
	callq	free
	.loc	1 53 9 is_stmt 1                # src/builtin/unset.c:53:9
	movq	-24(%rbp), %rax
	.loc	1 53 16 is_stmt 0               # src/builtin/unset.c:53:16
	movq	(%rax), %rdi
	.loc	1 53 4                          # src/builtin/unset.c:53:4
	callq	free
	.loc	1 54 9 is_stmt 1                # src/builtin/unset.c:54:9
	movq	-24(%rbp), %rdi
	.loc	1 54 4 is_stmt 0                # src/builtin/unset.c:54:4
	callq	free
	.loc	1 55 4 is_stmt 1                # src/builtin/unset.c:55:4
	jmp	.LBB0_7
.Ltmp7:
.LBB0_6:                                #   in Loop: Header=BB0_1 Depth=1
	.loc	1 57 10                         # src/builtin/unset.c:57:10
	movq	-24(%rbp), %rax
	.loc	1 57 8 is_stmt 0                # src/builtin/unset.c:57:8
	movq	%rax, -32(%rbp)
	.loc	1 58 11 is_stmt 1               # src/builtin/unset.c:58:11
	movq	-24(%rbp), %rax
	.loc	1 58 18 is_stmt 0               # src/builtin/unset.c:58:18
	movq	16(%rax), %rax
	.loc	1 58 9                          # src/builtin/unset.c:58:9
	movq	%rax, -24(%rbp)
.Ltmp8:
	.loc	1 46 2 is_stmt 1                # src/builtin/unset.c:46:2
	jmp	.LBB0_1
.LBB0_7:
	.loc	1 60 1                          # src/builtin/unset.c:60:1
	addq	$48, %rsp
	popq	%rbp
	.cfi_def_cfa %rsp, 8
	retq
.Ltmp9:
.Lfunc_end0:
	.size	unset_variable, .Lfunc_end0-unset_variable
	.cfi_endproc
                                        # -- End function
	.globl	unset                           # -- Begin function unset
	.p2align	4, 0x90
	.type	unset,@function
unset:                                  # @unset
.Lfunc_begin1:
	.loc	1 63 0                          # src/builtin/unset.c:63:0
	.cfi_startproc
# %bb.0:
	pushq	%rbp
	.cfi_def_cfa_offset 16
	.cfi_offset %rbp, -16
	movq	%rsp, %rbp
	.cfi_def_cfa_register %rbp
	subq	$32, %rsp
	movq	%rdi, -8(%rbp)
	movq	%rsi, -16(%rbp)
	movq	%rdx, -24(%rbp)
.Ltmp10:
	.loc	1 67 18 prologue_end            # src/builtin/unset.c:67:18
	movq	-24(%rbp), %rax
	.loc	1 67 23 is_stmt 0               # src/builtin/unset.c:67:23
	movq	88(%rax), %rdi
	.loc	1 67 6                          # src/builtin/unset.c:67:6
	callq	cmd_arg_nbr
	.loc	1 67 34                         # src/builtin/unset.c:67:34
	cmpl	$1, %eax
.Ltmp11:
	.loc	1 67 6                          # src/builtin/unset.c:67:6
	jle	.LBB1_5
# %bb.1:
.Ltmp12:
	.loc	1 69 5 is_stmt 1                # src/builtin/unset.c:69:5
	movl	$1, -28(%rbp)
.LBB1_2:                                # =>This Inner Loop Header: Depth=1
	.loc	1 70 10                         # src/builtin/unset.c:70:10
	movq	-24(%rbp), %rax
	.loc	1 70 15 is_stmt 0               # src/builtin/unset.c:70:15
	movq	88(%rax), %rax
	.loc	1 70 10                         # src/builtin/unset.c:70:10
	movslq	-28(%rbp), %rcx
	.loc	1 70 3                          # src/builtin/unset.c:70:3
	cmpq	$0, (%rax,%rcx,8)
	je	.LBB1_4
# %bb.3:                                #   in Loop: Header=BB1_2 Depth=1
.Ltmp13:
	.loc	1 75 26 is_stmt 1               # src/builtin/unset.c:75:26
	movq	-24(%rbp), %rax
	.loc	1 75 31 is_stmt 0               # src/builtin/unset.c:75:31
	movq	88(%rax), %rax
	.loc	1 75 26                         # src/builtin/unset.c:75:26
	movslq	-28(%rbp), %rcx
	movq	(%rax,%rcx,8), %rsi
	.loc	1 75 5                          # src/builtin/unset.c:75:5
	leaq	-16(%rbp), %rdi
	callq	unset_variable
	.loc	1 76 5 is_stmt 1                # src/builtin/unset.c:76:5
	movl	-28(%rbp), %eax
	addl	$1, %eax
	movl	%eax, -28(%rbp)
.Ltmp14:
	.loc	1 70 3                          # src/builtin/unset.c:70:3
	jmp	.LBB1_2
.LBB1_4:
	.loc	1 78 2                          # src/builtin/unset.c:78:2
	jmp	.LBB1_5
.Ltmp15:
.LBB1_5:
	.loc	1 79 1                          # src/builtin/unset.c:79:1
	addq	$32, %rsp
	popq	%rbp
	.cfi_def_cfa %rsp, 8
	retq
.Ltmp16:
.Lfunc_end1:
	.size	unset, .Lfunc_end1-unset
	.cfi_endproc
                                        # -- End function
	.file	2 "/mnt/nfs/homes/cboukhal/42/minishell" "src/builtin/../../include/minishell.h"
	.file	3 "/usr/include" "dirent.h"
	.file	4 "/usr/include" "signal.h"
	.file	5 "/usr/include/x86_64-linux-gnu/bits" "sigaction.h"
	.file	6 "/usr/include/x86_64-linux-gnu/bits/types" "siginfo_t.h"
	.file	7 "/usr/include/x86_64-linux-gnu/bits" "types.h"
	.file	8 "/usr/include/x86_64-linux-gnu/bits/types" "__sigval_t.h"
	.file	9 "/usr/include/x86_64-linux-gnu/bits/types" "__sigset_t.h"
	.file	10 "/usr/include/x86_64-linux-gnu/bits" "struct_stat.h"
	.file	11 "/usr/include/x86_64-linux-gnu/bits/types" "struct_timespec.h"
	.file	12 "/usr/include/x86_64-linux-gnu/bits" "termios.h"
	.file	13 "/usr/include/x86_64-linux-gnu/bits" "termios-struct.h"
	.section	".note.GNU-stack","",@progbits
	.addrsig
	.addrsig_sym unset_variable
	.addrsig_sym ft_strncmp
	.addrsig_sym ft_strlen
	.addrsig_sym free
	.addrsig_sym cmd_arg_nbr