	.text
	.file	"boolean_redirection.c"
	.file	1 "/mnt/nfs/homes/jbocktor/student/group_minishell/minigroup" "src/lexer/../../include/minishell.h"
	.globl	got_filename                    # -- Begin function got_filename
	.p2align	4, 0x90
	.type	got_filename,@function
got_filename:                           # @got_filename
.Lfunc_begin0:
	.file	2 "/mnt/nfs/homes/jbocktor/student/group_minishell/minigroup" "src/lexer/boolean_redirection.c"
	.loc	2 16 0                          # src/lexer/boolean_redirection.c:16:0
	.cfi_startproc
# %bb.0:
	pushq	%rbp
	.cfi_def_cfa_offset 16
	.cfi_offset %rbp, -16
	movq	%rsp, %rbp
	.cfi_def_cfa_register %rbp
	subq	$32, %rsp
	movq	%rdi, -16(%rbp)
	movl	%esi, -20(%rbp)
.Ltmp0:
	.loc	2 19 11 prologue_end            # src/lexer/boolean_redirection.c:19:11
	cmpl	$11, -20(%rbp)
	.loc	2 19 21 is_stmt 0               # src/lexer/boolean_redirection.c:19:21
	je	.LBB0_2
# %bb.1:
	.loc	2 19 29                         # src/lexer/boolean_redirection.c:19:29
	cmpl	$9, -20(%rbp)
.Ltmp1:
	.loc	2 19 6                          # src/lexer/boolean_redirection.c:19:6
	jne	.LBB0_3
.LBB0_2:
.Ltmp2:
	.loc	2 20 5 is_stmt 1                # src/lexer/boolean_redirection.c:20:5
	movl	$2, -24(%rbp)
	.loc	2 20 3 is_stmt 0                # src/lexer/boolean_redirection.c:20:3
	jmp	.LBB0_4
.LBB0_3:
	.loc	2 22 5 is_stmt 1                # src/lexer/boolean_redirection.c:22:5
	movl	$1, -24(%rbp)
.Ltmp3:
.LBB0_4:
	.loc	2 23 2                          # src/lexer/boolean_redirection.c:23:2
	jmp	.LBB0_5
.LBB0_5:                                # =>This Inner Loop Header: Depth=1
	.loc	2 23 9 is_stmt 0                # src/lexer/boolean_redirection.c:23:9
	movq	-16(%rbp), %rax
	movslq	-24(%rbp), %rcx
	.loc	2 23 2                          # src/lexer/boolean_redirection.c:23:2
	cmpb	$0, (%rax,%rcx)
	je	.LBB0_9
# %bb.6:                                #   in Loop: Header=BB0_5 Depth=1
.Ltmp4:
	.loc	2 25 16 is_stmt 1               # src/lexer/boolean_redirection.c:25:16
	movq	-16(%rbp), %rax
	movslq	-24(%rbp), %rcx
	.loc	2 25 7 is_stmt 0                # src/lexer/boolean_redirection.c:25:7
	movsbl	(%rax,%rcx), %edi
	callq	is_blank
	andb	$1, %al
	movzbl	%al, %eax
	.loc	2 25 27                         # src/lexer/boolean_redirection.c:25:27
	cmpl	$0, %eax
.Ltmp5:
	.loc	2 25 7                          # src/lexer/boolean_redirection.c:25:7
	jne	.LBB0_8
# %bb.7:
.Ltmp6:
	.loc	2 26 4 is_stmt 1                # src/lexer/boolean_redirection.c:26:4
	movb	$1, -1(%rbp)
	jmp	.LBB0_10
.Ltmp7:
.LBB0_8:                                #   in Loop: Header=BB0_5 Depth=1
	.loc	2 27 4                          # src/lexer/boolean_redirection.c:27:4
	movl	-24(%rbp), %eax
	addl	$1, %eax
	movl	%eax, -24(%rbp)
.Ltmp8:
	.loc	2 23 2                          # src/lexer/boolean_redirection.c:23:2
	jmp	.LBB0_5
.LBB0_9:
	.loc	2 29 2                          # src/lexer/boolean_redirection.c:29:2
	callq	__errno_location
	.loc	2 29 8 is_stmt 0                # src/lexer/boolean_redirection.c:29:8
	movl	$4, (%rax)
	.loc	2 30 2 is_stmt 1                # src/lexer/boolean_redirection.c:30:2
	movb	$0, -1(%rbp)
.LBB0_10:
	.loc	2 31 1                          # src/lexer/boolean_redirection.c:31:1
	movb	-1(%rbp), %al
	andb	$1, %al
	movzbl	%al, %eax
	addq	$32, %rsp
	popq	%rbp
	.cfi_def_cfa %rsp, 8
	retq
.Ltmp9:
.Lfunc_end0:
	.size	got_filename, .Lfunc_end0-got_filename
	.cfi_endproc
                                        # -- End function
	.globl	is_redirection                  # -- Begin function is_redirection
	.p2align	4, 0x90
	.type	is_redirection,@function
is_redirection:                         # @is_redirection
.Lfunc_begin1:
	.loc	2 34 0                          # src/lexer/boolean_redirection.c:34:0
	.cfi_startproc
# %bb.0:
	pushq	%rbp
	.cfi_def_cfa_offset 16
	.cfi_offset %rbp, -16
	movq	%rsp, %rbp
	.cfi_def_cfa_register %rbp
	movl	%edi, -8(%rbp)
.Ltmp10:
	.loc	2 35 11 prologue_end            # src/lexer/boolean_redirection.c:35:11
	cmpl	$12, -8(%rbp)
	.loc	2 35 21 is_stmt 0               # src/lexer/boolean_redirection.c:35:21
	je	.LBB1_4
# %bb.1:
	.loc	2 35 29                         # src/lexer/boolean_redirection.c:35:29
	cmpl	$10, -8(%rbp)
	.loc	2 36 3 is_stmt 1                # src/lexer/boolean_redirection.c:36:3
	je	.LBB1_4
# %bb.2:
	.loc	2 36 11 is_stmt 0               # src/lexer/boolean_redirection.c:36:11
	cmpl	$11, -8(%rbp)
	.loc	2 36 21                         # src/lexer/boolean_redirection.c:36:21
	je	.LBB1_4
# %bb.3:
	.loc	2 36 29                         # src/lexer/boolean_redirection.c:36:29
	cmpl	$9, -8(%rbp)
.Ltmp11:
	.loc	2 35 6 is_stmt 1                # src/lexer/boolean_redirection.c:35:6
	jne	.LBB1_5
.LBB1_4:
.Ltmp12:
	.loc	2 37 3                          # src/lexer/boolean_redirection.c:37:3
	movb	$1, -1(%rbp)
	jmp	.LBB1_6
.Ltmp13:
.LBB1_5:
	.loc	2 38 2                          # src/lexer/boolean_redirection.c:38:2
	movb	$0, -1(%rbp)
.LBB1_6:
	.loc	2 39 1                          # src/lexer/boolean_redirection.c:39:1
	movb	-1(%rbp), %al
	andb	$1, %al
	movzbl	%al, %eax
	popq	%rbp
	.cfi_def_cfa %rsp, 8
	retq
.Ltmp14:
.Lfunc_end1:
	.size	is_redirection, .Lfunc_end1-is_redirection
	.cfi_endproc
                                        # -- End function
	.section	".note.GNU-stack","",@progbits
	.addrsig
	.addrsig_sym is_blank
	.addrsig_sym __errno_location