	.text
	.file	"boolean_operator.c"
	.file	1 "/mnt/nfs/homes/jbocktor/student/group_minishell/minigroup" "src/lexer/../../include/minishell.h"
	.globl	is_metacharacter                # -- Begin function is_metacharacter
	.p2align	4, 0x90
	.type	is_metacharacter,@function
is_metacharacter:                       # @is_metacharacter
.Lfunc_begin0:
	.file	2 "/mnt/nfs/homes/jbocktor/student/group_minishell/minigroup" "src/lexer/boolean_operator.c"
	.loc	2 16 0                          # src/lexer/boolean_operator.c:16:0
	.cfi_startproc
# %bb.0:
	pushq	%rbp
	.cfi_def_cfa_offset 16
	.cfi_offset %rbp, -16
	movq	%rsp, %rbp
	.cfi_def_cfa_register %rbp
	subq	$16, %rsp
	movb	%dil, %al
	movb	%al, -2(%rbp)
.Ltmp0:
	.loc	2 17 6 prologue_end             # src/lexer/boolean_operator.c:17:6
	movsbl	-2(%rbp), %edi
	callq	is_blank
	.loc	2 17 18 is_stmt 0               # src/lexer/boolean_operator.c:17:18
	testb	$1, %al
	jne	.LBB0_2
# %bb.1:
	.loc	2 17 21                         # src/lexer/boolean_operator.c:17:21
	movsbl	-2(%rbp), %edi
	callq	is_operator
.Ltmp1:
	.loc	2 17 6                          # src/lexer/boolean_operator.c:17:6
	testb	$1, %al
	jne	.LBB0_2
	jmp	.LBB0_3
.LBB0_2:
.Ltmp2:
	.loc	2 18 3 is_stmt 1                # src/lexer/boolean_operator.c:18:3
	movb	$1, -1(%rbp)
	jmp	.LBB0_4
.Ltmp3:
.LBB0_3:
	.loc	2 19 2                          # src/lexer/boolean_operator.c:19:2
	movb	$0, -1(%rbp)
.LBB0_4:
	.loc	2 20 1                          # src/lexer/boolean_operator.c:20:1
	movb	-1(%rbp), %al
	andb	$1, %al
	movzbl	%al, %eax
	addq	$16, %rsp
	popq	%rbp
	.cfi_def_cfa %rsp, 8
	retq
.Ltmp4:
.Lfunc_end0:
	.size	is_metacharacter, .Lfunc_end0-is_metacharacter
	.cfi_endproc
                                        # -- End function
	.globl	is_blank                        # -- Begin function is_blank
	.p2align	4, 0x90
	.type	is_blank,@function
is_blank:                               # @is_blank
.Lfunc_begin1:
	.loc	2 34 0                          # src/lexer/boolean_operator.c:34:0
	.cfi_startproc
# %bb.0:
	pushq	%rbp
	.cfi_def_cfa_offset 16
	.cfi_offset %rbp, -16
	movq	%rsp, %rbp
	.cfi_def_cfa_register %rbp
	movb	%dil, %al
	movb	%al, -2(%rbp)
.Ltmp5:
	.loc	2 35 6 prologue_end             # src/lexer/boolean_operator.c:35:6
	movsbl	-2(%rbp), %eax
	.loc	2 35 8 is_stmt 0                # src/lexer/boolean_operator.c:35:8
	cmpl	$9, %eax
	.loc	2 35 26                         # src/lexer/boolean_operator.c:35:26
	je	.LBB1_5
# %bb.1:
	.loc	2 35 29                         # src/lexer/boolean_operator.c:35:29
	movsbl	-2(%rbp), %eax
	.loc	2 35 31                         # src/lexer/boolean_operator.c:35:31
	cmpl	$11, %eax
	.loc	2 36 3 is_stmt 1                # src/lexer/boolean_operator.c:36:3
	je	.LBB1_5
# %bb.2:
	.loc	2 36 6 is_stmt 0                # src/lexer/boolean_operator.c:36:6
	movsbl	-2(%rbp), %eax
	.loc	2 36 8                          # src/lexer/boolean_operator.c:36:8
	cmpl	$12, %eax
	.loc	2 36 20                         # src/lexer/boolean_operator.c:36:20
	je	.LBB1_5
# %bb.3:
	.loc	2 36 23                         # src/lexer/boolean_operator.c:36:23
	movsbl	-2(%rbp), %eax
	.loc	2 36 25                         # src/lexer/boolean_operator.c:36:25
	cmpl	$13, %eax
	.loc	2 36 41                         # src/lexer/boolean_operator.c:36:41
	je	.LBB1_5
# %bb.4:
	.loc	2 36 44                         # src/lexer/boolean_operator.c:36:44
	movsbl	-2(%rbp), %eax
	.loc	2 36 46                         # src/lexer/boolean_operator.c:36:46
	cmpl	$32, %eax
.Ltmp6:
	.loc	2 35 6 is_stmt 1                # src/lexer/boolean_operator.c:35:6
	jne	.LBB1_6
.LBB1_5:
.Ltmp7:
	.loc	2 37 3                          # src/lexer/boolean_operator.c:37:3
	movb	$1, -1(%rbp)
	jmp	.LBB1_7
.Ltmp8:
.LBB1_6:
	.loc	2 38 2                          # src/lexer/boolean_operator.c:38:2
	movb	$0, -1(%rbp)
.LBB1_7:
	.loc	2 39 1                          # src/lexer/boolean_operator.c:39:1
	movb	-1(%rbp), %al
	andb	$1, %al
	movzbl	%al, %eax
	popq	%rbp
	.cfi_def_cfa %rsp, 8
	retq
.Ltmp9:
.Lfunc_end1:
	.size	is_blank, .Lfunc_end1-is_blank
	.cfi_endproc
                                        # -- End function
	.globl	is_operator                     # -- Begin function is_operator
	.p2align	4, 0x90
	.type	is_operator,@function
is_operator:                            # @is_operator
.Lfunc_begin2:
	.loc	2 42 0                          # src/lexer/boolean_operator.c:42:0
	.cfi_startproc
# %bb.0:
	pushq	%rbp
	.cfi_def_cfa_offset 16
	.cfi_offset %rbp, -16
	movq	%rsp, %rbp
	.cfi_def_cfa_register %rbp
	movb	%dil, %al
	movb	%al, -2(%rbp)
.Ltmp10:
	.loc	2 43 6 prologue_end             # src/lexer/boolean_operator.c:43:6
	movsbl	-2(%rbp), %eax
	.loc	2 43 8 is_stmt 0                # src/lexer/boolean_operator.c:43:8
	cmpl	$40, %eax
	.loc	2 43 15                         # src/lexer/boolean_operator.c:43:15
	je	.LBB2_6
# %bb.1:
	.loc	2 43 18                         # src/lexer/boolean_operator.c:43:18
	movsbl	-2(%rbp), %eax
	.loc	2 43 20                         # src/lexer/boolean_operator.c:43:20
	cmpl	$41, %eax
	.loc	2 44 3 is_stmt 1                # src/lexer/boolean_operator.c:44:3
	je	.LBB2_6
# %bb.2:
	.loc	2 44 6 is_stmt 0                # src/lexer/boolean_operator.c:44:6
	movsbl	-2(%rbp), %eax
	.loc	2 44 8                          # src/lexer/boolean_operator.c:44:8
	cmpl	$124, %eax
	.loc	2 44 15                         # src/lexer/boolean_operator.c:44:15
	je	.LBB2_6
# %bb.3:
	.loc	2 44 18                         # src/lexer/boolean_operator.c:44:18
	movsbl	-2(%rbp), %eax
	.loc	2 44 20                         # src/lexer/boolean_operator.c:44:20
	cmpl	$38, %eax
	.loc	2 45 3 is_stmt 1                # src/lexer/boolean_operator.c:45:3
	je	.LBB2_6
# %bb.4:
	.loc	2 45 6 is_stmt 0                # src/lexer/boolean_operator.c:45:6
	movsbl	-2(%rbp), %eax
	.loc	2 45 8                          # src/lexer/boolean_operator.c:45:8
	cmpl	$60, %eax
	.loc	2 45 15                         # src/lexer/boolean_operator.c:45:15
	je	.LBB2_6
# %bb.5:
	.loc	2 45 18                         # src/lexer/boolean_operator.c:45:18
	movsbl	-2(%rbp), %eax
	.loc	2 45 20                         # src/lexer/boolean_operator.c:45:20
	cmpl	$62, %eax
.Ltmp11:
	.loc	2 43 6 is_stmt 1                # src/lexer/boolean_operator.c:43:6
	jne	.LBB2_7
.LBB2_6:
.Ltmp12:
	.loc	2 46 3                          # src/lexer/boolean_operator.c:46:3
	movb	$1, -1(%rbp)
	jmp	.LBB2_8
.Ltmp13:
.LBB2_7:
	.loc	2 47 2                          # src/lexer/boolean_operator.c:47:2
	movb	$0, -1(%rbp)
.LBB2_8:
	.loc	2 48 1                          # src/lexer/boolean_operator.c:48:1
	movb	-1(%rbp), %al
	andb	$1, %al
	movzbl	%al, %eax
	popq	%rbp
	.cfi_def_cfa %rsp, 8
	retq
.Ltmp14:
.Lfunc_end2:
	.size	is_operator, .Lfunc_end2-is_operator
	.cfi_endproc
                                        # -- End function
	.globl	type_is_operator                # -- Begin function type_is_operator
	.p2align	4, 0x90
	.type	type_is_operator,@function
type_is_operator:                       # @type_is_operator
.Lfunc_begin3:
	.loc	2 23 0                          # src/lexer/boolean_operator.c:23:0
	.cfi_startproc
# %bb.0:
	pushq	%rbp
	.cfi_def_cfa_offset 16
	.cfi_offset %rbp, -16
	movq	%rsp, %rbp
	.cfi_def_cfa_register %rbp
	movl	%edi, -8(%rbp)
.Ltmp15:
	.loc	2 24 11 prologue_end            # src/lexer/boolean_operator.c:24:11
	cmpl	$0, -8(%rbp)
	.loc	2 24 28 is_stmt 0               # src/lexer/boolean_operator.c:24:28
	je	.LBB3_9
# %bb.1:
	.loc	2 24 36                         # src/lexer/boolean_operator.c:24:36
	cmpl	$1, -8(%rbp)
	.loc	2 25 3 is_stmt 1                # src/lexer/boolean_operator.c:25:3
	je	.LBB3_9
# %bb.2:
	.loc	2 25 11 is_stmt 0               # src/lexer/boolean_operator.c:25:11
	cmpl	$8, -8(%rbp)
	.loc	2 25 22                         # src/lexer/boolean_operator.c:25:22
	je	.LBB3_9
# %bb.3:
	.loc	2 25 30                         # src/lexer/boolean_operator.c:25:30
	cmpl	$9, -8(%rbp)
	.loc	2 26 3 is_stmt 1                # src/lexer/boolean_operator.c:26:3
	je	.LBB3_9
# %bb.4:
	.loc	2 26 11 is_stmt 0               # src/lexer/boolean_operator.c:26:11
	cmpl	$12, -8(%rbp)
	.loc	2 26 21                         # src/lexer/boolean_operator.c:26:21
	je	.LBB3_9
# %bb.5:
	.loc	2 26 29                         # src/lexer/boolean_operator.c:26:29
	cmpl	$11, -8(%rbp)
	.loc	2 27 3 is_stmt 1                # src/lexer/boolean_operator.c:27:3
	je	.LBB3_9
# %bb.6:
	.loc	2 27 11 is_stmt 0               # src/lexer/boolean_operator.c:27:11
	cmpl	$10, -8(%rbp)
	.loc	2 27 22                         # src/lexer/boolean_operator.c:27:22
	je	.LBB3_9
# %bb.7:
	.loc	2 27 30                         # src/lexer/boolean_operator.c:27:30
	cmpl	$13, -8(%rbp)
	.loc	2 28 3 is_stmt 1                # src/lexer/boolean_operator.c:28:3
	je	.LBB3_9
# %bb.8:
	.loc	2 28 11 is_stmt 0               # src/lexer/boolean_operator.c:28:11
	cmpl	$14, -8(%rbp)
.Ltmp16:
	.loc	2 24 6 is_stmt 1                # src/lexer/boolean_operator.c:24:6
	jne	.LBB3_10
.LBB3_9:
.Ltmp17:
	.loc	2 29 3                          # src/lexer/boolean_operator.c:29:3
	movb	$1, -1(%rbp)
	jmp	.LBB3_11
.Ltmp18:
.LBB3_10:
	.loc	2 30 2                          # src/lexer/boolean_operator.c:30:2
	movb	$0, -1(%rbp)
.LBB3_11:
	.loc	2 31 1                          # src/lexer/boolean_operator.c:31:1
	movb	-1(%rbp), %al
	andb	$1, %al
	movzbl	%al, %eax
	popq	%rbp
	.cfi_def_cfa %rsp, 8
	retq
.Ltmp19:
.Lfunc_end3:
	.size	type_is_operator, .Lfunc_end3-type_is_operator
	.cfi_endproc
                                        # -- End function
	.globl	is_operator_token               # -- Begin function is_operator_token
	.p2align	4, 0x90
	.type	is_operator_token,@function
is_operator_token:                      # @is_operator_token
.Lfunc_begin4:
	.loc	2 51 0                          # src/lexer/boolean_operator.c:51:0
	.cfi_startproc
# %bb.0:
	pushq	%rbp
	.cfi_def_cfa_offset 16
	.cfi_offset %rbp, -16
	movq	%rsp, %rbp
	.cfi_def_cfa_register %rbp
	movq	%rdi, -16(%rbp)
.Ltmp20:
	.loc	2 52 6 prologue_end             # src/lexer/boolean_operator.c:52:6
	cmpq	$0, -16(%rbp)
	.loc	2 52 12 is_stmt 0               # src/lexer/boolean_operator.c:52:12
	je	.LBB4_5
# %bb.1:
	.loc	2 52 16                         # src/lexer/boolean_operator.c:52:16
	movq	-16(%rbp), %rax
	.loc	2 52 28                         # src/lexer/boolean_operator.c:52:28
	cmpl	$13, (%rax)
	.loc	2 52 38                         # src/lexer/boolean_operator.c:52:38
	je	.LBB4_4
# %bb.2:
	.loc	2 52 41                         # src/lexer/boolean_operator.c:52:41
	movq	-16(%rbp), %rax
	.loc	2 52 53                         # src/lexer/boolean_operator.c:52:53
	cmpl	$14, (%rax)
	.loc	2 53 4 is_stmt 1                # src/lexer/boolean_operator.c:53:4
	je	.LBB4_4
# %bb.3:
	.loc	2 53 7 is_stmt 0                # src/lexer/boolean_operator.c:53:7
	movq	-16(%rbp), %rax
	.loc	2 53 19                         # src/lexer/boolean_operator.c:53:19
	cmpl	$8, (%rax)
.Ltmp21:
	.loc	2 52 6 is_stmt 1                # src/lexer/boolean_operator.c:52:6
	jne	.LBB4_5
.LBB4_4:
.Ltmp22:
	.loc	2 54 3                          # src/lexer/boolean_operator.c:54:3
	movb	$1, -1(%rbp)
	jmp	.LBB4_6
.Ltmp23:
.LBB4_5:
	.loc	2 55 2                          # src/lexer/boolean_operator.c:55:2
	movb	$0, -1(%rbp)
.LBB4_6:
	.loc	2 56 1                          # src/lexer/boolean_operator.c:56:1
	movb	-1(%rbp), %al
	andb	$1, %al
	movzbl	%al, %eax
	popq	%rbp
	.cfi_def_cfa %rsp, 8
	retq
.Ltmp24:
.Lfunc_end4:
	.size	is_operator_token, .Lfunc_end4-is_operator_token
	.cfi_endproc
                                        # -- End function
	.section	".note.GNU-stack","",@progbits
	.addrsig
	.addrsig_sym is_blank
	.addrsig_sym is_operator