	.text
	.file	"lexer_error.c"
	.file	1 "/mnt/nfs/homes/cboukhal/42/minishell" "src/lexer/../../include/minishell.h"
	.globl	when_only_one_token             # -- Begin function when_only_one_token
	.p2align	4, 0x90
	.type	when_only_one_token,@function
when_only_one_token:                    # @when_only_one_token
.Lfunc_begin0:
	.file	2 "/mnt/nfs/homes/cboukhal/42/minishell" "src/lexer/lexer_error.c"
	.loc	2 16 0                          # src/lexer/lexer_error.c:16:0
	.cfi_startproc
# %bb.0:
	pushq	%rbp
	.cfi_def_cfa_offset 16
	.cfi_offset %rbp, -16
	movq	%rsp, %rbp
	.cfi_def_cfa_register %rbp
	subq	$32, %rsp
	movq	%rdi, -8(%rbp)
	movq	%rsi, -16(%rbp)
.Ltmp0:
	.loc	2 17 23 prologue_end            # src/lexer/lexer_error.c:17:23
	movq	-16(%rbp), %rax
	.loc	2 17 22 is_stmt 0               # src/lexer/lexer_error.c:17:22
	movq	(%rax), %rax
	.loc	2 17 31                         # src/lexer/lexer_error.c:17:31
	movl	(%rax), %edi
	.loc	2 17 6                          # src/lexer/lexer_error.c:17:6
	callq	is_redirection
.Ltmp1:
	.loc	2 17 6                          # src/lexer/lexer_error.c:17:6
	testb	$1, %al
	jne	.LBB0_1
	jmp	.LBB0_4
.LBB0_1:
.Ltmp2:
	.loc	2 19 22 is_stmt 1               # src/lexer/lexer_error.c:19:22
	movq	-16(%rbp), %rax
	.loc	2 19 21 is_stmt 0               # src/lexer/lexer_error.c:19:21
	movq	(%rax), %rax
	.loc	2 19 30                         # src/lexer/lexer_error.c:19:30
	movq	16(%rax), %rdi
	.loc	2 19 40                         # src/lexer/lexer_error.c:19:40
	movq	-16(%rbp), %rax
	.loc	2 19 39                         # src/lexer/lexer_error.c:19:39
	movq	(%rax), %rax
	.loc	2 19 48                         # src/lexer/lexer_error.c:19:48
	movl	(%rax), %esi
	.loc	2 19 7                          # src/lexer/lexer_error.c:19:7
	callq	got_filename
.Ltmp3:
	.loc	2 19 7                          # src/lexer/lexer_error.c:19:7
	testb	$1, %al
	jne	.LBB0_2
	jmp	.LBB0_3
.LBB0_2:
.Ltmp4:
	.loc	2 20 4 is_stmt 1                # src/lexer/lexer_error.c:20:4
	jmp	.LBB0_6
.Ltmp5:
.LBB0_3:
	.loc	2 21 3                          # src/lexer/lexer_error.c:21:3
	movl	$2, %edi
	movabsq	$.L.str, %rsi
	movl	$24, %edx
	callq	write
	.loc	2 22 3                          # src/lexer/lexer_error.c:22:3
	movl	$2, %edi
	movabsq	$.L.str.1, %rsi
	movl	$27, %edx
	callq	write
	.loc	2 23 2                          # src/lexer/lexer_error.c:23:2
	jmp	.LBB0_5
.Ltmp6:
.LBB0_4:
	.loc	2 26 3                          # src/lexer/lexer_error.c:26:3
	movl	$2, %edi
	movabsq	$.L.str.2, %rsi
	movl	$42, %edx
	callq	write
	.loc	2 27 14                         # src/lexer/lexer_error.c:27:14
	movq	-16(%rbp), %rax
	.loc	2 27 13 is_stmt 0               # src/lexer/lexer_error.c:27:13
	movq	(%rax), %rax
	.loc	2 27 22                         # src/lexer/lexer_error.c:27:22
	movq	16(%rax), %rax
	movq	%rax, -24(%rbp)                 # 8-byte Spill
	.loc	2 27 42                         # src/lexer/lexer_error.c:27:42
	movq	-16(%rbp), %rax
	.loc	2 27 41                         # src/lexer/lexer_error.c:27:41
	movq	(%rax), %rax
	.loc	2 27 50                         # src/lexer/lexer_error.c:27:50
	movq	16(%rax), %rdi
	.loc	2 27 30                         # src/lexer/lexer_error.c:27:30
	callq	ft_strlen
	movq	-24(%rbp), %rsi                 # 8-byte Reload
	movq	%rax, %rdx
	.loc	2 27 3                          # src/lexer/lexer_error.c:27:3
	movl	$2, %edi
	callq	write
	.loc	2 28 3 is_stmt 1                # src/lexer/lexer_error.c:28:3
	movl	$2, %edi
	movabsq	$.L.str.3, %rsi
	movl	$2, %edx
	callq	write
.Ltmp7:
.LBB0_5:
	.loc	2 30 2                          # src/lexer/lexer_error.c:30:2
	callq	__errno_location
	.loc	2 30 8 is_stmt 0                # src/lexer/lexer_error.c:30:8
	movl	$1, (%rax)
	.loc	2 31 2 is_stmt 1                # src/lexer/lexer_error.c:31:2
	movq	-8(%rbp), %rax
	.loc	2 31 25 is_stmt 0               # src/lexer/lexer_error.c:31:25
	movb	$2, 44(%rax)
.LBB0_6:
	.loc	2 32 1 is_stmt 1                # src/lexer/lexer_error.c:32:1
	addq	$32, %rsp
	popq	%rbp
	.cfi_def_cfa %rsp, 8
	retq
.Ltmp8:
.Lfunc_end0:
	.size	when_only_one_token, .Lfunc_end0-when_only_one_token
	.cfi_endproc
                                        # -- End function
	.globl	check_lexical_error             # -- Begin function check_lexical_error
	.p2align	4, 0x90
	.type	check_lexical_error,@function
check_lexical_error:                    # @check_lexical_error
.Lfunc_begin1:
	.loc	2 35 0                          # src/lexer/lexer_error.c:35:0
	.cfi_startproc
# %bb.0:
	pushq	%rbp
	.cfi_def_cfa_offset 16
	.cfi_offset %rbp, -16
	movq	%rsp, %rbp
	.cfi_def_cfa_register %rbp
	subq	$32, %rsp
	movb	%dl, %al
	movq	%rdi, -8(%rbp)
	movq	%rsi, -16(%rbp)
	movb	%al, -17(%rbp)
.Ltmp9:
	.loc	2 36 9 prologue_end             # src/lexer/lexer_error.c:36:9
	movq	-16(%rbp), %rax
	.loc	2 36 7 is_stmt 0                # src/lexer/lexer_error.c:36:7
	cmpq	$0, (%rax)
.Ltmp10:
	.loc	2 36 6                          # src/lexer/lexer_error.c:36:6
	jne	.LBB1_2
# %bb.1:
.Ltmp11:
	.loc	2 37 3 is_stmt 1                # src/lexer/lexer_error.c:37:3
	jmp	.LBB1_14
.Ltmp12:
.LBB1_2:
	.loc	2 39 25                         # src/lexer/lexer_error.c:39:25
	movq	-16(%rbp), %rax
	.loc	2 39 24 is_stmt 0               # src/lexer/lexer_error.c:39:24
	movq	(%rax), %rax
	.loc	2 39 33                         # src/lexer/lexer_error.c:39:33
	movl	(%rax), %edi
	.loc	2 39 6                          # src/lexer/lexer_error.c:39:6
	callq	type_is_operator
.Ltmp13:
	.loc	2 39 6                          # src/lexer/lexer_error.c:39:6
	testb	$1, %al
	jne	.LBB1_3
	jmp	.LBB1_14
.LBB1_3:
.Ltmp14:
	.loc	2 41 8 is_stmt 1                # src/lexer/lexer_error.c:41:8
	cmpb	$0, -17(%rbp)
	.loc	2 41 14 is_stmt 0               # src/lexer/lexer_error.c:41:14
	jne	.LBB1_6
# %bb.4:
	.loc	2 41 19                         # src/lexer/lexer_error.c:41:19
	movq	-16(%rbp), %rax
	.loc	2 41 18                         # src/lexer/lexer_error.c:41:18
	movq	(%rax), %rax
	.loc	2 41 32                         # src/lexer/lexer_error.c:41:32
	cmpq	$0, 32(%rax)
.Ltmp15:
	.loc	2 41 7                          # src/lexer/lexer_error.c:41:7
	jne	.LBB1_6
# %bb.5:
.Ltmp16:
	.loc	2 43 24 is_stmt 1               # src/lexer/lexer_error.c:43:24
	movq	-8(%rbp), %rdi
	.loc	2 43 35 is_stmt 0               # src/lexer/lexer_error.c:43:35
	movq	-16(%rbp), %rsi
	.loc	2 43 4                          # src/lexer/lexer_error.c:43:4
	callq	when_only_one_token
	.loc	2 44 4 is_stmt 1                # src/lexer/lexer_error.c:44:4
	jmp	.LBB1_14
.Ltmp17:
.LBB1_6:
	.loc	2 46 14                         # src/lexer/lexer_error.c:46:14
	movq	-16(%rbp), %rax
	.loc	2 46 13 is_stmt 0               # src/lexer/lexer_error.c:46:13
	movq	(%rax), %rax
	.loc	2 46 12                         # src/lexer/lexer_error.c:46:12
	cmpq	$0, 32(%rax)
	.loc	2 46 27                         # src/lexer/lexer_error.c:46:27
	je	.LBB1_12
# %bb.7:
	.loc	2 46 49                         # src/lexer/lexer_error.c:46:49
	movq	-16(%rbp), %rax
	.loc	2 46 48                         # src/lexer/lexer_error.c:46:48
	movq	(%rax), %rax
	.loc	2 46 57                         # src/lexer/lexer_error.c:46:57
	movq	32(%rax), %rax
	.loc	2 46 63                         # src/lexer/lexer_error.c:46:63
	movl	(%rax), %edi
	.loc	2 46 30                         # src/lexer/lexer_error.c:46:30
	callq	type_is_operator
.Ltmp18:
	.loc	2 46 12                         # src/lexer/lexer_error.c:46:12
	testb	$1, %al
	jne	.LBB1_8
	jmp	.LBB1_12
.LBB1_8:
.Ltmp19:
	.loc	2 48 23 is_stmt 1               # src/lexer/lexer_error.c:48:23
	movq	-16(%rbp), %rax
	.loc	2 48 22 is_stmt 0               # src/lexer/lexer_error.c:48:22
	movq	(%rax), %rax
	.loc	2 48 31                         # src/lexer/lexer_error.c:48:31
	movq	16(%rax), %rdi
	.loc	2 48 41                         # src/lexer/lexer_error.c:48:41
	movq	-16(%rbp), %rax
	.loc	2 48 40                         # src/lexer/lexer_error.c:48:40
	movq	(%rax), %rax
	.loc	2 48 49                         # src/lexer/lexer_error.c:48:49
	movl	(%rax), %esi
	.loc	2 48 8                          # src/lexer/lexer_error.c:48:8
	callq	got_filename
	.loc	2 49 5 is_stmt 1                # src/lexer/lexer_error.c:49:5
	testb	$1, %al
	jne	.LBB1_10
# %bb.9:
	.loc	2 49 23 is_stmt 0               # src/lexer/lexer_error.c:49:23
	movq	-16(%rbp), %rax
	.loc	2 49 22                         # src/lexer/lexer_error.c:49:22
	movq	(%rax), %rax
	.loc	2 49 31                         # src/lexer/lexer_error.c:49:31
	movq	32(%rax), %rax
	.loc	2 49 37                         # src/lexer/lexer_error.c:49:37
	movq	16(%rax), %rdi
	.loc	2 49 47                         # src/lexer/lexer_error.c:49:47
	movq	-16(%rbp), %rax
	.loc	2 49 46                         # src/lexer/lexer_error.c:49:46
	movq	(%rax), %rax
	.loc	2 49 55                         # src/lexer/lexer_error.c:49:55
	movq	32(%rax), %rax
	.loc	2 49 61                         # src/lexer/lexer_error.c:49:61
	movl	(%rax), %esi
	.loc	2 49 8                          # src/lexer/lexer_error.c:49:8
	callq	got_filename
.Ltmp20:
	.loc	2 48 8 is_stmt 1                # src/lexer/lexer_error.c:48:8
	testb	$1, %al
	jne	.LBB1_10
	jmp	.LBB1_11
.LBB1_10:
.Ltmp21:
	.loc	2 50 5                          # src/lexer/lexer_error.c:50:5
	jmp	.LBB1_14
.Ltmp22:
.LBB1_11:
	.loc	2 52 7                          # src/lexer/lexer_error.c:52:7
	movq	-16(%rbp), %rax
	.loc	2 52 6 is_stmt 0                # src/lexer/lexer_error.c:52:6
	movq	(%rax), %rax
	.loc	2 52 15                         # src/lexer/lexer_error.c:52:15
	movq	16(%rax), %rsi
	.loc	2 51 4 is_stmt 1                # src/lexer/lexer_error.c:51:4
	movabsq	$.L.str.4, %rdi
	movb	$0, %al
	callq	ft_printf
	.loc	2 53 4                          # src/lexer/lexer_error.c:53:4
	callq	__errno_location
	.loc	2 53 10 is_stmt 0               # src/lexer/lexer_error.c:53:10
	movl	$1, (%rax)
	.loc	2 54 4 is_stmt 1                # src/lexer/lexer_error.c:54:4
	movq	-8(%rbp), %rax
	.loc	2 54 27 is_stmt 0               # src/lexer/lexer_error.c:54:27
	movb	$2, 44(%rax)
	.loc	2 55 4 is_stmt 1                # src/lexer/lexer_error.c:55:4
	jmp	.LBB1_14
.Ltmp23:
.LBB1_12:
	.loc	2 0 4 is_stmt 0                 # src/lexer/lexer_error.c:0:4
	jmp	.LBB1_13
.LBB1_13:
	.loc	2 57 2 is_stmt 1                # src/lexer/lexer_error.c:57:2
	jmp	.LBB1_14
.Ltmp24:
.LBB1_14:
	.loc	2 58 1                          # src/lexer/lexer_error.c:58:1
	addq	$32, %rsp
	popq	%rbp
	.cfi_def_cfa %rsp, 8
	retq
.Ltmp25:
.Lfunc_end1:
	.size	check_lexical_error, .Lfunc_end1-check_lexical_error
	.cfi_endproc
                                        # -- End function
	.type	.L.str,@object                  # @.str
	.section	.rodata.str1.1,"aMS",@progbits,1
.L.str:
	.asciz	"bash: syntax error near "
	.size	.L.str, 25

	.type	.L.str.1,@object                # @.str.1
.L.str.1:
	.asciz	"unexpected token `newline'\n"
	.size	.L.str.1, 28

	.type	.L.str.2,@object                # @.str.2
.L.str.2:
	.asciz	"bash: syntax error near unexpected token `"
	.size	.L.str.2, 43

	.type	.L.str.3,@object                # @.str.3
.L.str.3:
	.asciz	"'\n"
	.size	.L.str.3, 3

	.type	.L.str.4,@object                # @.str.4
.L.str.4:
	.asciz	"bash: syntax error near unexpected token `%s'\n"
	.size	.L.str.4, 47

	.file	3 "/usr/include" "dirent.h"
	.file	4 "/usr/include" "signal.h"
	.file	5 "/usr/include/x86_64-linux-gnu/bits" "sigaction.h"
	.file	6 "/usr/include/x86_64-linux-gnu/bits/types" "siginfo_t.h"
	.file	7 "/usr/include/x86_64-linux-gnu/bits" "types.h"
	.file	8 "/usr/include/x86_64-linux-gnu/bits/types" "__sigval_t.h"
	.file	9 "/usr/include/x86_64-linux-gnu/bits/types" "__sigset_t.h"
	.file	10 "/usr/include/x86_64-linux-gnu/bits" "struct_stat.h"
	.file	11 "/usr/include/x86_64-linux-gnu/bits/types" "struct_timespec.h"
	.file	12 "/usr/include/x86_64-linux-gnu/bits" "termios.h"
	.file	13 "/usr/include/x86_64-linux-gnu/bits" "termios-struct.h"
	.section	".note.GNU-stack","",@progbits
	.addrsig
	.addrsig_sym when_only_one_token
	.addrsig_sym is_redirection
	.addrsig_sym got_filename
	.addrsig_sym write
	.addrsig_sym ft_strlen
	.addrsig_sym __errno_location
	.addrsig_sym type_is_operator
	.addrsig_sym ft_printf