	.text
	.file	"token_word.c"
	.globl	get_word_length                 # -- Begin function get_word_length
	.p2align	4, 0x90
	.type	get_word_length,@function
get_word_length:                        # @get_word_length
.Lfunc_begin0:
	.file	1 "/mnt/nfs/homes/jbocktor/student/group_minishell/more_hope/minigroups" "src/lexer/token_word.c"
	.loc	1 16 0                          # src/lexer/token_word.c:16:0
	.cfi_startproc
# %bb.0:
	pushq	%rbp
	.cfi_def_cfa_offset 16
	.cfi_offset %rbp, -16
	movq	%rsp, %rbp
	.cfi_def_cfa_register %rbp
	subq	$32, %rsp
	movq	%rdi, -16(%rbp)
.Ltmp0:
	.loc	1 19 4 prologue_end             # src/lexer/token_word.c:19:4
	movl	$0, -20(%rbp)
.LBB0_1:                                # =>This Inner Loop Header: Depth=1
	.loc	1 20 9                          # src/lexer/token_word.c:20:9
	movq	-16(%rbp), %rax
	movslq	-20(%rbp), %rcx
	movsbl	(%rax,%rcx), %ecx
	xorl	%eax, %eax
                                        # kill: def $al killed $al killed $eax
	cmpl	$0, %ecx
	movb	%al, -21(%rbp)                  # 1-byte Spill
	.loc	1 20 18 is_stmt 0               # src/lexer/token_word.c:20:18
	je	.LBB0_4
# %bb.2:                                #   in Loop: Header=BB0_1 Depth=1
	.loc	1 20 21                         # src/lexer/token_word.c:20:21
	callq	__errno_location
	movq	%rax, %rcx
	.loc	1 20 27                         # src/lexer/token_word.c:20:27
	xorl	%eax, %eax
                                        # kill: def $al killed $al killed $eax
	cmpl	$0, (%rcx)
	movb	%al, -21(%rbp)                  # 1-byte Spill
	.loc	1 21 3 is_stmt 1                # src/lexer/token_word.c:21:3
	jne	.LBB0_4
# %bb.3:                                #   in Loop: Header=BB0_1 Depth=1
	.loc	1 21 23 is_stmt 0               # src/lexer/token_word.c:21:23
	movq	-16(%rbp), %rax
	movslq	-20(%rbp), %rcx
	.loc	1 21 6                          # src/lexer/token_word.c:21:6
	movsbl	(%rax,%rcx), %edi
	callq	is_metacharacter
	andb	$1, %al
	movzbl	%al, %eax
	.loc	1 21 33                         # src/lexer/token_word.c:21:33
	cmpl	$0, %eax
	sete	%al
	movb	%al, -21(%rbp)                  # 1-byte Spill
.LBB0_4:                                #   in Loop: Header=BB0_1 Depth=1
	.loc	1 0 33                          # src/lexer/token_word.c:0:33
	movb	-21(%rbp), %al                  # 1-byte Reload
	.loc	1 20 2 is_stmt 1                # src/lexer/token_word.c:20:2
	testb	$1, %al
	jne	.LBB0_5
	jmp	.LBB0_10
.LBB0_5:                                #   in Loop: Header=BB0_1 Depth=1
.Ltmp1:
	.loc	1 23 16                         # src/lexer/token_word.c:23:16
	movq	-16(%rbp), %rax
	movslq	-20(%rbp), %rcx
	.loc	1 23 7 is_stmt 0                # src/lexer/token_word.c:23:7
	movsbl	(%rax,%rcx), %edi
	callq	is_quote
.Ltmp2:
	.loc	1 23 7                          # src/lexer/token_word.c:23:7
	testb	$1, %al
	jne	.LBB0_6
	jmp	.LBB0_7
.LBB0_6:                                #   in Loop: Header=BB0_1 Depth=1
.Ltmp3:
	.loc	1 24 20 is_stmt 1               # src/lexer/token_word.c:24:20
	movq	-16(%rbp), %rdi
	movslq	-20(%rbp), %rax
	addq	%rax, %rdi
	.loc	1 24 9 is_stmt 0                # src/lexer/token_word.c:24:9
	callq	add_quote
	.loc	1 24 6                          # src/lexer/token_word.c:24:6
	addl	-20(%rbp), %eax
	movl	%eax, -20(%rbp)
.Ltmp4:
.LBB0_7:                                #   in Loop: Header=BB0_1 Depth=1
	.loc	1 25 9 is_stmt 1                # src/lexer/token_word.c:25:9
	cmpl	$-1, -20(%rbp)
.Ltmp5:
	.loc	1 25 7 is_stmt 0                # src/lexer/token_word.c:25:7
	jne	.LBB0_9
# %bb.8:
.Ltmp6:
	.loc	1 26 4 is_stmt 1                # src/lexer/token_word.c:26:4
	movl	$-1, -4(%rbp)
	jmp	.LBB0_11
.Ltmp7:
.LBB0_9:                                #   in Loop: Header=BB0_1 Depth=1
	.loc	1 27 4                          # src/lexer/token_word.c:27:4
	movl	-20(%rbp), %eax
	addl	$1, %eax
	movl	%eax, -20(%rbp)
.Ltmp8:
	.loc	1 20 2                          # src/lexer/token_word.c:20:2
	jmp	.LBB0_1
.LBB0_10:
	.loc	1 29 10                         # src/lexer/token_word.c:29:10
	movl	-20(%rbp), %eax
	.loc	1 29 2 is_stmt 0                # src/lexer/token_word.c:29:2
	movl	%eax, -4(%rbp)
.LBB0_11:
	.loc	1 30 1 is_stmt 1                # src/lexer/token_word.c:30:1
	movl	-4(%rbp), %eax
	addq	$32, %rsp
	popq	%rbp
	.cfi_def_cfa %rsp, 8
	retq
.Ltmp9:
.Lfunc_end0:
	.size	get_word_length, .Lfunc_end0-get_word_length
	.cfi_endproc
                                        # -- End function
	.globl	extract_lexeme_from_input       # -- Begin function extract_lexeme_from_input
	.p2align	4, 0x90
	.type	extract_lexeme_from_input,@function
extract_lexeme_from_input:              # @extract_lexeme_from_input
.Lfunc_begin1:
	.loc	1 34 0                          # src/lexer/token_word.c:34:0
	.cfi_startproc
# %bb.0:
	pushq	%rbp
	.cfi_def_cfa_offset 16
	.cfi_offset %rbp, -16
	movq	%rsp, %rbp
	.cfi_def_cfa_register %rbp
	subq	$48, %rsp
	movq	%rdi, -8(%rbp)
	movq	%rsi, -16(%rbp)
	movl	%edx, -20(%rbp)
	movl	%ecx, -24(%rbp)
.Ltmp10:
	.loc	1 40 4 prologue_end             # src/lexer/token_word.c:40:4
	movl	$0, -28(%rbp)
	.loc	1 41 4                          # src/lexer/token_word.c:41:4
	movl	$0, -32(%rbp)
	.loc	1 42 8                          # src/lexer/token_word.c:42:8
	movb	$0, -33(%rbp)
	.loc	1 43 15                         # src/lexer/token_word.c:43:15
	movl	$0, -40(%rbp)
.LBB1_1:                                # =>This Inner Loop Header: Depth=1
	.loc	1 44 9                          # src/lexer/token_word.c:44:9
	movl	-28(%rbp), %eax
	.loc	1 44 13 is_stmt 0               # src/lexer/token_word.c:44:13
	movl	-20(%rbp), %ecx
	.loc	1 44 20                         # src/lexer/token_word.c:44:20
	subl	-24(%rbp), %ecx
	.loc	1 44 11                         # src/lexer/token_word.c:44:11
	cmpl	%ecx, %eax
	.loc	1 44 2                          # src/lexer/token_word.c:44:2
	jge	.LBB1_9
# %bb.2:                                #   in Loop: Header=BB1_1 Depth=1
.Ltmp11:
	.loc	1 46 16 is_stmt 1               # src/lexer/token_word.c:46:16
	movq	-8(%rbp), %rax
	movslq	-28(%rbp), %rcx
	.loc	1 46 7 is_stmt 0                # src/lexer/token_word.c:46:7
	movsbl	(%rax,%rcx), %edi
	callq	is_quote
.Ltmp12:
	.loc	1 46 7                          # src/lexer/token_word.c:46:7
	testb	$1, %al
	jne	.LBB1_3
	jmp	.LBB1_4
.LBB1_3:                                #   in Loop: Header=BB1_1 Depth=1
.Ltmp13:
	.loc	1 47 22 is_stmt 1               # src/lexer/token_word.c:47:22
	movq	-8(%rbp), %rax
	movslq	-28(%rbp), %rcx
	.loc	1 47 9 is_stmt 0                # src/lexer/token_word.c:47:9
	leaq	-33(%rbp), %rsi
	leaq	-40(%rbp), %rdx
	movsbl	(%rax,%rcx), %edi
	callq	remove_quote
	.loc	1 47 6                          # src/lexer/token_word.c:47:6
	addl	-28(%rbp), %eax
	movl	%eax, -28(%rbp)
.Ltmp14:
.LBB1_4:                                #   in Loop: Header=BB1_1 Depth=1
	.loc	1 48 20 is_stmt 1               # src/lexer/token_word.c:48:20
	cmpl	$0, -40(%rbp)
	.loc	1 48 25 is_stmt 0               # src/lexer/token_word.c:48:25
	jne	.LBB1_7
# %bb.5:                                #   in Loop: Header=BB1_1 Depth=1
	.loc	1 48 37                         # src/lexer/token_word.c:48:37
	movq	-8(%rbp), %rax
	movslq	-28(%rbp), %rcx
	.loc	1 48 28                         # src/lexer/token_word.c:48:28
	movsbl	(%rax,%rcx), %edi
	callq	is_quote
.Ltmp15:
	.loc	1 48 7                          # src/lexer/token_word.c:48:7
	testb	$1, %al
	jne	.LBB1_6
	jmp	.LBB1_7
.LBB1_6:                                #   in Loop: Header=BB1_1 Depth=1
.Ltmp16:
	.loc	1 50 5 is_stmt 1                # src/lexer/token_word.c:50:5
	movl	-28(%rbp), %eax
	addl	$1, %eax
	movl	%eax, -28(%rbp)
	.loc	1 51 4                          # src/lexer/token_word.c:51:4
	jmp	.LBB1_1
.Ltmp17:
.LBB1_7:                                #   in Loop: Header=BB1_1 Depth=1
	.loc	1 54 18                         # src/lexer/token_word.c:54:18
	movq	-8(%rbp), %rax
	.loc	1 54 25 is_stmt 0               # src/lexer/token_word.c:54:25
	movl	-28(%rbp), %ecx
	movl	%ecx, %edx
	addl	$1, %edx
	movl	%edx, -28(%rbp)
	.loc	1 54 18                         # src/lexer/token_word.c:54:18
	movslq	%ecx, %rcx
	movb	(%rax,%rcx), %dl
	.loc	1 54 4                          # src/lexer/token_word.c:54:4
	movq	-16(%rbp), %rax
	.loc	1 54 12                         # src/lexer/token_word.c:54:12
	movl	-32(%rbp), %ecx
	movl	%ecx, %esi
	addl	$1, %esi
	movl	%esi, -32(%rbp)
	.loc	1 54 4                          # src/lexer/token_word.c:54:4
	movslq	%ecx, %rcx
	.loc	1 54 16                         # src/lexer/token_word.c:54:16
	movb	%dl, (%rax,%rcx)
.Ltmp18:
# %bb.8:                                #   in Loop: Header=BB1_1 Depth=1
	.loc	1 44 2 is_stmt 1                # src/lexer/token_word.c:44:2
	jmp	.LBB1_1
.LBB1_9:
	.loc	1 56 2                          # src/lexer/token_word.c:56:2
	movq	-16(%rbp), %rax
	movslq	-32(%rbp), %rcx
	.loc	1 56 12 is_stmt 0               # src/lexer/token_word.c:56:12
	movb	$0, (%rax,%rcx)
	.loc	1 57 1 is_stmt 1                # src/lexer/token_word.c:57:1
	addq	$48, %rsp
	popq	%rbp
	.cfi_def_cfa %rsp, 8
	retq
.Ltmp19:
.Lfunc_end1:
	.size	extract_lexeme_from_input, .Lfunc_end1-extract_lexeme_from_input
	.cfi_endproc
                                        # -- End function
	.globl	get_word_lexeme                 # -- Begin function get_word_lexeme
	.p2align	4, 0x90
	.type	get_word_lexeme,@function
get_word_lexeme:                        # @get_word_lexeme
.Lfunc_begin2:
	.loc	1 60 0                          # src/lexer/token_word.c:60:0
	.cfi_startproc
# %bb.0:
	pushq	%rbp
	.cfi_def_cfa_offset 16
	.cfi_offset %rbp, -16
	movq	%rsp, %rbp
	.cfi_def_cfa_register %rbp
	subq	$32, %rsp
	movq	%rdi, -16(%rbp)
	movl	%esi, -20(%rbp)
	movl	%edx, -24(%rbp)
.Ltmp20:
	.loc	1 63 18 prologue_end            # src/lexer/token_word.c:63:18
	movl	-20(%rbp), %eax
	.loc	1 63 25 is_stmt 0               # src/lexer/token_word.c:63:25
	subl	-24(%rbp), %eax
	.loc	1 63 37                         # src/lexer/token_word.c:63:37
	addl	$1, %eax
	.loc	1 63 18                         # src/lexer/token_word.c:63:18
	movslq	%eax, %rdi
	.loc	1 63 11                         # src/lexer/token_word.c:63:11
	callq	malloc
	.loc	1 63 9                          # src/lexer/token_word.c:63:9
	movq	%rax, -32(%rbp)
.Ltmp21:
	.loc	1 64 7 is_stmt 1                # src/lexer/token_word.c:64:7
	cmpq	$0, -32(%rbp)
.Ltmp22:
	.loc	1 64 6 is_stmt 0                # src/lexer/token_word.c:64:6
	jne	.LBB2_2
# %bb.1:
.Ltmp23:
	.loc	1 65 11 is_stmt 1               # src/lexer/token_word.c:65:11
	movabsq	$.L.str, %rdi
	callq	perror
	.loc	1 65 3 is_stmt 0                # src/lexer/token_word.c:65:3
	movq	$0, -8(%rbp)
	jmp	.LBB2_3
.Ltmp24:
.LBB2_2:
	.loc	1 66 28 is_stmt 1               # src/lexer/token_word.c:66:28
	movq	-16(%rbp), %rdi
	.loc	1 66 35 is_stmt 0               # src/lexer/token_word.c:66:35
	movq	-32(%rbp), %rsi
	.loc	1 66 43                         # src/lexer/token_word.c:66:43
	movl	-20(%rbp), %edx
	.loc	1 66 51                         # src/lexer/token_word.c:66:51
	movl	-24(%rbp), %ecx
	.loc	1 66 2                          # src/lexer/token_word.c:66:2
	callq	extract_lexeme_from_input
	.loc	1 67 10 is_stmt 1               # src/lexer/token_word.c:67:10
	movq	-32(%rbp), %rax
	.loc	1 67 2 is_stmt 0                # src/lexer/token_word.c:67:2
	movq	%rax, -8(%rbp)
.LBB2_3:
	.loc	1 68 1 is_stmt 1                # src/lexer/token_word.c:68:1
	movq	-8(%rbp), %rax
	addq	$32, %rsp
	popq	%rbp
	.cfi_def_cfa %rsp, 8
	retq
.Ltmp25:
.Lfunc_end2:
	.size	get_word_lexeme, .Lfunc_end2-get_word_lexeme
	.cfi_endproc
                                        # -- End function
	.globl	is_empty_within_two_quote       # -- Begin function is_empty_within_two_quote
	.p2align	4, 0x90
	.type	is_empty_within_two_quote,@function
is_empty_within_two_quote:              # @is_empty_within_two_quote
.Lfunc_begin3:
	.loc	1 71 0                          # src/lexer/token_word.c:71:0
	.cfi_startproc
# %bb.0:
	pushq	%rbp
	.cfi_def_cfa_offset 16
	.cfi_offset %rbp, -16
	movq	%rsp, %rbp
	.cfi_def_cfa_register %rbp
	movl	%edi, -8(%rbp)
	movl	%esi, -12(%rbp)
.Ltmp26:
	.loc	1 72 6 prologue_end             # src/lexer/token_word.c:72:6
	movl	-8(%rbp), %eax
	.loc	1 72 15 is_stmt 0               # src/lexer/token_word.c:72:15
	movl	-12(%rbp), %ecx
	.loc	1 72 25                         # src/lexer/token_word.c:72:25
	shll	$1, %ecx
	.loc	1 72 13                         # src/lexer/token_word.c:72:13
	subl	%ecx, %eax
	.loc	1 72 29                         # src/lexer/token_word.c:72:29
	cmpl	$0, %eax
.Ltmp27:
	.loc	1 72 6                          # src/lexer/token_word.c:72:6
	jne	.LBB3_2
# %bb.1:
.Ltmp28:
	.loc	1 73 3 is_stmt 1                # src/lexer/token_word.c:73:3
	movb	$1, -1(%rbp)
	jmp	.LBB3_3
.Ltmp29:
.LBB3_2:
	.loc	1 74 2                          # src/lexer/token_word.c:74:2
	movb	$0, -1(%rbp)
.LBB3_3:
	.loc	1 75 1                          # src/lexer/token_word.c:75:1
	movb	-1(%rbp), %al
	andb	$1, %al
	movzbl	%al, %eax
	popq	%rbp
	.cfi_def_cfa %rsp, 8
	retq
.Ltmp30:
.Lfunc_end3:
	.size	is_empty_within_two_quote, .Lfunc_end3-is_empty_within_two_quote
	.cfi_endproc
                                        # -- End function
	.globl	get_word_token                  # -- Begin function get_word_token
	.p2align	4, 0x90
	.type	get_word_token,@function
get_word_token:                         # @get_word_token
.Lfunc_begin4:
	.loc	1 78 0                          # src/lexer/token_word.c:78:0
	.cfi_startproc
# %bb.0:
	pushq	%rbp
	.cfi_def_cfa_offset 16
	.cfi_offset %rbp, -16
	movq	%rsp, %rbp
	.cfi_def_cfa_register %rbp
	subq	$16, %rsp
	movq	%rdi, -8(%rbp)
	movq	%rsi, -16(%rbp)
.Ltmp31:
	.loc	1 79 42 prologue_end            # src/lexer/token_word.c:79:42
	movq	-8(%rbp), %rdi
	.loc	1 79 22 is_stmt 0               # src/lexer/token_word.c:79:22
	callq	get_token_quote_nbr
	movl	%eax, %ecx
	.loc	1 79 4                          # src/lexer/token_word.c:79:4
	movq	-16(%rbp), %rax
	.loc	1 79 3                          # src/lexer/token_word.c:79:3
	movq	(%rax), %rax
	.loc	1 79 20                         # src/lexer/token_word.c:79:20
	movl	%ecx, 4(%rax)
.Ltmp32:
	.loc	1 80 6 is_stmt 1                # src/lexer/token_word.c:80:6
	callq	__errno_location
	.loc	1 80 12 is_stmt 0               # src/lexer/token_word.c:80:12
	cmpl	$0, (%rax)
	.loc	1 80 17                         # src/lexer/token_word.c:80:17
	jne	.LBB4_6
# %bb.1:
	.loc	1 80 22                         # src/lexer/token_word.c:80:22
	movq	-16(%rbp), %rax
	.loc	1 80 21                         # src/lexer/token_word.c:80:21
	movq	(%rax), %rax
	.loc	1 80 38                         # src/lexer/token_word.c:80:38
	cmpl	$-1, 4(%rax)
.Ltmp33:
	.loc	1 80 6                          # src/lexer/token_word.c:80:6
	je	.LBB4_6
# %bb.2:
.Ltmp34:
	.loc	1 82 36 is_stmt 1               # src/lexer/token_word.c:82:36
	movq	-8(%rbp), %rdi
	.loc	1 82 20 is_stmt 0               # src/lexer/token_word.c:82:20
	callq	get_word_length
	movl	%eax, %ecx
	.loc	1 82 5                          # src/lexer/token_word.c:82:5
	movq	-16(%rbp), %rax
	.loc	1 82 4                          # src/lexer/token_word.c:82:4
	movq	(%rax), %rax
	.loc	1 82 18                         # src/lexer/token_word.c:82:18
	movl	%ecx, 8(%rax)
.Ltmp35:
	.loc	1 83 35 is_stmt 1               # src/lexer/token_word.c:83:35
	movq	-16(%rbp), %rax
	.loc	1 83 34 is_stmt 0               # src/lexer/token_word.c:83:34
	movq	(%rax), %rax
	.loc	1 83 41                         # src/lexer/token_word.c:83:41
	movl	8(%rax), %edi
	.loc	1 83 51                         # src/lexer/token_word.c:83:51
	movq	-16(%rbp), %rax
	.loc	1 83 50                         # src/lexer/token_word.c:83:50
	movq	(%rax), %rax
	.loc	1 83 57                         # src/lexer/token_word.c:83:57
	movl	4(%rax), %esi
	.loc	1 83 7                          # src/lexer/token_word.c:83:7
	callq	is_empty_within_two_quote
.Ltmp36:
	.loc	1 83 7                          # src/lexer/token_word.c:83:7
	testb	$1, %al
	jne	.LBB4_3
	jmp	.LBB4_4
.LBB4_3:
.Ltmp37:
	.loc	1 84 6 is_stmt 1                # src/lexer/token_word.c:84:6
	movq	-16(%rbp), %rax
	.loc	1 84 5 is_stmt 0                # src/lexer/token_word.c:84:5
	movq	(%rax), %rax
	.loc	1 84 19                         # src/lexer/token_word.c:84:19
	movq	$0, 16(%rax)
	.loc	1 84 4                          # src/lexer/token_word.c:84:4
	jmp	.LBB4_5
.LBB4_4:
.Ltmp38:
	.loc	1 87 37 is_stmt 1               # src/lexer/token_word.c:87:37
	movq	-8(%rbp), %rdi
	.loc	1 88 8                          # src/lexer/token_word.c:88:8
	movq	-16(%rbp), %rax
	.loc	1 88 7 is_stmt 0                # src/lexer/token_word.c:88:7
	movq	(%rax), %rax
	.loc	1 88 14                         # src/lexer/token_word.c:88:14
	movl	8(%rax), %esi
	.loc	1 88 24                         # src/lexer/token_word.c:88:24
	movq	-16(%rbp), %rax
	.loc	1 88 23                         # src/lexer/token_word.c:88:23
	movq	(%rax), %rax
	.loc	1 88 30                         # src/lexer/token_word.c:88:30
	movl	4(%rax), %edx
	.loc	1 87 21 is_stmt 1               # src/lexer/token_word.c:87:21
	callq	get_word_lexeme
	movq	%rax, %rcx
	.loc	1 87 6 is_stmt 0                # src/lexer/token_word.c:87:6
	movq	-16(%rbp), %rax
	.loc	1 87 5                          # src/lexer/token_word.c:87:5
	movq	(%rax), %rax
	.loc	1 87 19                         # src/lexer/token_word.c:87:19
	movq	%rcx, 16(%rax)
	.loc	1 89 44 is_stmt 1               # src/lexer/token_word.c:89:44
	movq	-8(%rbp), %rdi
	.loc	1 89 53 is_stmt 0               # src/lexer/token_word.c:89:53
	movq	-16(%rbp), %rax
	.loc	1 89 52                         # src/lexer/token_word.c:89:52
	movq	(%rax), %rax
	.loc	1 89 59                         # src/lexer/token_word.c:89:59
	movl	8(%rax), %esi
	.loc	1 89 24                         # src/lexer/token_word.c:89:24
	callq	get_token_expansion
	movq	%rax, %rcx
	.loc	1 89 6                          # src/lexer/token_word.c:89:6
	movq	-16(%rbp), %rax
	.loc	1 89 5                          # src/lexer/token_word.c:89:5
	movq	(%rax), %rax
	.loc	1 89 22                         # src/lexer/token_word.c:89:22
	movq	%rcx, 24(%rax)
.Ltmp39:
.LBB4_5:
	.loc	1 91 2 is_stmt 1                # src/lexer/token_word.c:91:2
	jmp	.LBB4_6
.Ltmp40:
.LBB4_6:
	.loc	1 92 1                          # src/lexer/token_word.c:92:1
	addq	$16, %rsp
	popq	%rbp
	.cfi_def_cfa %rsp, 8
	retq
.Ltmp41:
.Lfunc_end4:
	.size	get_word_token, .Lfunc_end4-get_word_token
	.cfi_endproc
                                        # -- End function
	.type	.L.str,@object                  # @.str
	.section	.rodata.str1.1,"aMS",@progbits,1
.L.str:
	.asciz	"malloc"
	.size	.L.str, 7

	.file	2 "/mnt/nfs/homes/jbocktor/student/group_minishell/more_hope/minigroups" "src/lexer/../../include/minishell.h"
	.section	".note.GNU-stack","",@progbits
	.addrsig
	.addrsig_sym get_word_length
	.addrsig_sym __errno_location
	.addrsig_sym is_metacharacter
	.addrsig_sym is_quote
	.addrsig_sym add_quote
	.addrsig_sym extract_lexeme_from_input
	.addrsig_sym remove_quote
	.addrsig_sym get_word_lexeme
	.addrsig_sym malloc
	.addrsig_sym perror
	.addrsig_sym is_empty_within_two_quote
	.addrsig_sym get_token_quote_nbr
	.addrsig_sym get_token_expansion