	.text
	.file	"token_quote.c"
	.file	1 "/mnt/nfs/homes/cboukhal/42/minishell" "src/lexer/../../include/minishell.h"
	.globl	add_quote                       # -- Begin function add_quote
	.p2align	4, 0x90
	.type	add_quote,@function
add_quote:                              # @add_quote
.Lfunc_begin0:
	.file	2 "/mnt/nfs/homes/cboukhal/42/minishell" "src/lexer/token_quote.c"
	.loc	2 16 0                          # src/lexer/token_quote.c:16:0
	.cfi_startproc
# %bb.0:
	pushq	%rbp
	.cfi_def_cfa_offset 16
	.cfi_offset %rbp, -16
	movq	%rsp, %rbp
	.cfi_def_cfa_register %rbp
	subq	$32, %rsp
	movq	%rdi, -16(%rbp)
.Ltmp0:
	.loc	2 20 4 prologue_end             # src/lexer/token_quote.c:20:4
	movl	$0, -20(%rbp)
	.loc	2 21 10                         # src/lexer/token_quote.c:21:10
	movq	-16(%rbp), %rax
	movslq	-20(%rbp), %rcx
	movb	(%rax,%rcx), %al
	.loc	2 21 8 is_stmt 0                # src/lexer/token_quote.c:21:8
	movb	%al, -21(%rbp)
	.loc	2 22 3 is_stmt 1                # src/lexer/token_quote.c:22:3
	movl	-20(%rbp), %eax
	addl	$1, %eax
	movl	%eax, -20(%rbp)
.LBB0_1:                                # =>This Inner Loop Header: Depth=1
	.loc	2 23 9                          # src/lexer/token_quote.c:23:9
	movq	-16(%rbp), %rax
	movslq	-20(%rbp), %rcx
	.loc	2 23 2 is_stmt 0                # src/lexer/token_quote.c:23:2
	cmpb	$0, (%rax,%rcx)
	je	.LBB0_5
# %bb.2:                                #   in Loop: Header=BB0_1 Depth=1
.Ltmp1:
	.loc	2 25 7 is_stmt 1                # src/lexer/token_quote.c:25:7
	movq	-16(%rbp), %rax
	movslq	-20(%rbp), %rcx
	movsbl	(%rax,%rcx), %eax
	.loc	2 25 19 is_stmt 0               # src/lexer/token_quote.c:25:19
	movsbl	-21(%rbp), %ecx
	.loc	2 25 16                         # src/lexer/token_quote.c:25:16
	cmpl	%ecx, %eax
.Ltmp2:
	.loc	2 25 7                          # src/lexer/token_quote.c:25:7
	jne	.LBB0_4
# %bb.3:
.Ltmp3:
	.loc	2 26 12 is_stmt 1               # src/lexer/token_quote.c:26:12
	movl	-20(%rbp), %eax
	.loc	2 26 4 is_stmt 0                # src/lexer/token_quote.c:26:4
	movl	%eax, -4(%rbp)
	jmp	.LBB0_6
.Ltmp4:
.LBB0_4:                                #   in Loop: Header=BB0_1 Depth=1
	.loc	2 27 4 is_stmt 1                # src/lexer/token_quote.c:27:4
	movl	-20(%rbp), %eax
	addl	$1, %eax
	movl	%eax, -20(%rbp)
.Ltmp5:
	.loc	2 23 2                          # src/lexer/token_quote.c:23:2
	jmp	.LBB0_1
.LBB0_5:
	.loc	2 29 63                         # src/lexer/token_quote.c:29:63
	movsbl	-21(%rbp), %esi
	.loc	2 29 2 is_stmt 0                # src/lexer/token_quote.c:29:2
	movabsq	$.L.str, %rdi
	movb	$0, %al
	callq	ft_printf
	.loc	2 30 2 is_stmt 1                # src/lexer/token_quote.c:30:2
	callq	__errno_location
	.loc	2 30 8 is_stmt 0                # src/lexer/token_quote.c:30:8
	movl	$1, (%rax)
	.loc	2 31 2 is_stmt 1                # src/lexer/token_quote.c:31:2
	movl	$-1, -4(%rbp)
.LBB0_6:
	.loc	2 32 1                          # src/lexer/token_quote.c:32:1
	movl	-4(%rbp), %eax
	addq	$32, %rsp
	popq	%rbp
	.cfi_def_cfa %rsp, 8
	retq
.Ltmp6:
.Lfunc_end0:
	.size	add_quote, .Lfunc_end0-add_quote
	.cfi_endproc
                                        # -- End function
	.globl	skip_quote                      # -- Begin function skip_quote
	.p2align	4, 0x90
	.type	skip_quote,@function
skip_quote:                             # @skip_quote
.Lfunc_begin1:
	.loc	2 35 0                          # src/lexer/token_quote.c:35:0
	.cfi_startproc
# %bb.0:
	pushq	%rbp
	.cfi_def_cfa_offset 16
	.cfi_offset %rbp, -16
	movq	%rsp, %rbp
	.cfi_def_cfa_register %rbp
	movb	%sil, %al
	movq	%rdi, -8(%rbp)
	movb	%al, -9(%rbp)
.Ltmp7:
	.loc	2 38 4 prologue_end             # src/lexer/token_quote.c:38:4
	movl	$1, -16(%rbp)
.LBB1_1:                                # =>This Inner Loop Header: Depth=1
	.loc	2 39 9                          # src/lexer/token_quote.c:39:9
	movq	-8(%rbp), %rax
	movslq	-16(%rbp), %rcx
	movsbl	(%rax,%rcx), %eax
	.loc	2 39 22 is_stmt 0               # src/lexer/token_quote.c:39:22
	movsbl	-9(%rbp), %ecx
	.loc	2 39 19                         # src/lexer/token_quote.c:39:19
	cmpl	%ecx, %eax
	.loc	2 39 2                          # src/lexer/token_quote.c:39:2
	je	.LBB1_3
# %bb.2:                                #   in Loop: Header=BB1_1 Depth=1
	.loc	2 40 4 is_stmt 1                # src/lexer/token_quote.c:40:4
	movl	-16(%rbp), %eax
	addl	$1, %eax
	movl	%eax, -16(%rbp)
	.loc	2 39 2                          # src/lexer/token_quote.c:39:2
	jmp	.LBB1_1
.LBB1_3:
	.loc	2 41 10                         # src/lexer/token_quote.c:41:10
	movl	-16(%rbp), %eax
	.loc	2 41 2 is_stmt 0                # src/lexer/token_quote.c:41:2
	popq	%rbp
	.cfi_def_cfa %rsp, 8
	retq
.Ltmp8:
.Lfunc_end1:
	.size	skip_quote, .Lfunc_end1-skip_quote
	.cfi_endproc
                                        # -- End function
	.globl	get_token_quote_nbr             # -- Begin function get_token_quote_nbr
	.p2align	4, 0x90
	.type	get_token_quote_nbr,@function
get_token_quote_nbr:                    # @get_token_quote_nbr
.Lfunc_begin2:
	.loc	2 45 0 is_stmt 1                # src/lexer/token_quote.c:45:0
	.cfi_startproc
# %bb.0:
	pushq	%rbp
	.cfi_def_cfa_offset 16
	.cfi_offset %rbp, -16
	movq	%rsp, %rbp
	.cfi_def_cfa_register %rbp
	subq	$32, %rsp
	movq	%rdi, -16(%rbp)
.Ltmp9:
	.loc	2 49 4 prologue_end             # src/lexer/token_quote.c:49:4
	movl	$0, -20(%rbp)
	.loc	2 50 8                          # src/lexer/token_quote.c:50:8
	movl	$0, -24(%rbp)
.LBB2_1:                                # =>This Inner Loop Header: Depth=1
	.loc	2 51 9                          # src/lexer/token_quote.c:51:9
	movq	-16(%rbp), %rax
	movslq	-20(%rbp), %rcx
	movsbl	(%rax,%rcx), %ecx
	xorl	%eax, %eax
                                        # kill: def $al killed $al killed $eax
	cmpl	$0, %ecx
	movb	%al, -25(%rbp)                  # 1-byte Spill
	.loc	2 51 18 is_stmt 0               # src/lexer/token_quote.c:51:18
	je	.LBB2_4
# %bb.2:                                #   in Loop: Header=BB2_1 Depth=1
	.loc	2 51 21                         # src/lexer/token_quote.c:51:21
	callq	__errno_location
	movq	%rax, %rcx
	.loc	2 51 27                         # src/lexer/token_quote.c:51:27
	xorl	%eax, %eax
                                        # kill: def $al killed $al killed $eax
	cmpl	$0, (%rcx)
	movb	%al, -25(%rbp)                  # 1-byte Spill
	.loc	2 52 3 is_stmt 1                # src/lexer/token_quote.c:52:3
	jne	.LBB2_4
# %bb.3:                                #   in Loop: Header=BB2_1 Depth=1
	.loc	2 52 23 is_stmt 0               # src/lexer/token_quote.c:52:23
	movq	-16(%rbp), %rax
	movslq	-20(%rbp), %rcx
	.loc	2 52 6                          # src/lexer/token_quote.c:52:6
	movsbl	(%rax,%rcx), %edi
	callq	is_metacharacter
	andb	$1, %al
	movzbl	%al, %eax
	.loc	2 52 33                         # src/lexer/token_quote.c:52:33
	cmpl	$0, %eax
	sete	%al
	movb	%al, -25(%rbp)                  # 1-byte Spill
.LBB2_4:                                #   in Loop: Header=BB2_1 Depth=1
	.loc	2 0 33                          # src/lexer/token_quote.c:0:33
	movb	-25(%rbp), %al                  # 1-byte Reload
	.loc	2 51 2 is_stmt 1                # src/lexer/token_quote.c:51:2
	testb	$1, %al
	jne	.LBB2_5
	jmp	.LBB2_10
.LBB2_5:                                #   in Loop: Header=BB2_1 Depth=1
.Ltmp10:
	.loc	2 54 16                         # src/lexer/token_quote.c:54:16
	movq	-16(%rbp), %rax
	movslq	-20(%rbp), %rcx
	.loc	2 54 7 is_stmt 0                # src/lexer/token_quote.c:54:7
	movsbl	(%rax,%rcx), %edi
	callq	is_quote
.Ltmp11:
	.loc	2 54 7                          # src/lexer/token_quote.c:54:7
	testb	$1, %al
	jne	.LBB2_6
	jmp	.LBB2_7
.LBB2_6:                                #   in Loop: Header=BB2_1 Depth=1
.Ltmp12:
	.loc	2 56 20 is_stmt 1               # src/lexer/token_quote.c:56:20
	movq	-16(%rbp), %rdi
	movslq	-20(%rbp), %rax
	addq	%rax, %rdi
	.loc	2 56 9 is_stmt 0                # src/lexer/token_quote.c:56:9
	callq	add_quote
	.loc	2 56 6                          # src/lexer/token_quote.c:56:6
	addl	-20(%rbp), %eax
	movl	%eax, -20(%rbp)
	.loc	2 57 9 is_stmt 1                # src/lexer/token_quote.c:57:9
	movl	-24(%rbp), %eax
	addl	$1, %eax
	movl	%eax, -24(%rbp)
.Ltmp13:
.LBB2_7:                                #   in Loop: Header=BB2_1 Depth=1
	.loc	2 59 9                          # src/lexer/token_quote.c:59:9
	cmpl	$-1, -20(%rbp)
.Ltmp14:
	.loc	2 59 7 is_stmt 0                # src/lexer/token_quote.c:59:7
	jne	.LBB2_9
# %bb.8:
.Ltmp15:
	.loc	2 60 4 is_stmt 1                # src/lexer/token_quote.c:60:4
	movl	$-1, -4(%rbp)
	jmp	.LBB2_11
.Ltmp16:
.LBB2_9:                                #   in Loop: Header=BB2_1 Depth=1
	.loc	2 61 4                          # src/lexer/token_quote.c:61:4
	movl	-20(%rbp), %eax
	addl	$1, %eax
	movl	%eax, -20(%rbp)
.Ltmp17:
	.loc	2 51 2                          # src/lexer/token_quote.c:51:2
	jmp	.LBB2_1
.LBB2_10:
	.loc	2 63 10                         # src/lexer/token_quote.c:63:10
	movl	-24(%rbp), %eax
	.loc	2 63 2 is_stmt 0                # src/lexer/token_quote.c:63:2
	movl	%eax, -4(%rbp)
.LBB2_11:
	.loc	2 64 1 is_stmt 1                # src/lexer/token_quote.c:64:1
	movl	-4(%rbp), %eax
	addq	$32, %rsp
	popq	%rbp
	.cfi_def_cfa %rsp, 8
	retq
.Ltmp18:
.Lfunc_end2:
	.size	get_token_quote_nbr, .Lfunc_end2-get_token_quote_nbr
	.cfi_endproc
                                        # -- End function
	.globl	remove_quote                    # -- Begin function remove_quote
	.p2align	4, 0x90
	.type	remove_quote,@function
remove_quote:                           # @remove_quote
.Lfunc_begin3:
	.loc	2 67 0                          # src/lexer/token_quote.c:67:0
	.cfi_startproc
# %bb.0:
	pushq	%rbp
	.cfi_def_cfa_offset 16
	.cfi_offset %rbp, -16
	movq	%rsp, %rbp
	.cfi_def_cfa_register %rbp
	movb	%dil, %al
	movb	%al, -5(%rbp)
	movq	%rsi, -16(%rbp)
	movq	%rdx, -24(%rbp)
.Ltmp19:
	.loc	2 68 9 prologue_end             # src/lexer/token_quote.c:68:9
	movq	-16(%rbp), %rax
	.loc	2 68 7 is_stmt 0                # src/lexer/token_quote.c:68:7
	cmpb	$0, (%rax)
.Ltmp20:
	.loc	2 68 6                          # src/lexer/token_quote.c:68:6
	jne	.LBB3_2
# %bb.1:
.Ltmp21:
	.loc	2 69 12 is_stmt 1               # src/lexer/token_quote.c:69:12
	movb	-5(%rbp), %cl
	.loc	2 69 4 is_stmt 0                # src/lexer/token_quote.c:69:4
	movq	-16(%rbp), %rax
	.loc	2 69 10                         # src/lexer/token_quote.c:69:10
	movb	%cl, (%rax)
.Ltmp22:
.LBB3_2:
	.loc	2 70 6 is_stmt 1                # src/lexer/token_quote.c:70:6
	movsbl	-5(%rbp), %eax
	.loc	2 70 17 is_stmt 0               # src/lexer/token_quote.c:70:17
	movq	-16(%rbp), %rcx
	.loc	2 70 16                         # src/lexer/token_quote.c:70:16
	movsbl	(%rcx), %ecx
	.loc	2 70 13                         # src/lexer/token_quote.c:70:13
	cmpl	%ecx, %eax
.Ltmp23:
	.loc	2 70 6                          # src/lexer/token_quote.c:70:6
	jne	.LBB3_6
# %bb.3:
.Ltmp24:
	.loc	2 72 4 is_stmt 1                # src/lexer/token_quote.c:72:4
	movq	-24(%rbp), %rax
	.loc	2 72 17 is_stmt 0               # src/lexer/token_quote.c:72:17
	movl	(%rax), %ecx
	addl	$1, %ecx
	movl	%ecx, (%rax)
.Ltmp25:
	.loc	2 73 8 is_stmt 1                # src/lexer/token_quote.c:73:8
	movq	-24(%rbp), %rax
	.loc	2 73 21 is_stmt 0               # src/lexer/token_quote.c:73:21
	cmpl	$2, (%rax)
.Ltmp26:
	.loc	2 73 7                          # src/lexer/token_quote.c:73:7
	jne	.LBB3_5
# %bb.4:
.Ltmp27:
	.loc	2 75 5 is_stmt 1                # src/lexer/token_quote.c:75:5
	movq	-16(%rbp), %rax
	.loc	2 75 11 is_stmt 0               # src/lexer/token_quote.c:75:11
	movb	$0, (%rax)
	.loc	2 76 5 is_stmt 1                # src/lexer/token_quote.c:76:5
	movq	-24(%rbp), %rax
	.loc	2 76 18 is_stmt 0               # src/lexer/token_quote.c:76:18
	movl	$0, (%rax)
.Ltmp28:
.LBB3_5:
	.loc	2 78 3 is_stmt 1                # src/lexer/token_quote.c:78:3
	movl	$1, -4(%rbp)
	jmp	.LBB3_7
.Ltmp29:
.LBB3_6:
	.loc	2 80 2                          # src/lexer/token_quote.c:80:2
	movl	$0, -4(%rbp)
.LBB3_7:
	.loc	2 81 1                          # src/lexer/token_quote.c:81:1
	movl	-4(%rbp), %eax
	popq	%rbp
	.cfi_def_cfa %rsp, 8
	retq
.Ltmp30:
.Lfunc_end3:
	.size	remove_quote, .Lfunc_end3-remove_quote
	.cfi_endproc
                                        # -- End function
	.type	.L.str,@object                  # @.str
	.section	.rodata.str1.1,"aMS",@progbits,1
.L.str:
	.asciz	"bash: syntax error near unexpected token `%c'\n"
	.size	.L.str, 47

	.section	".note.GNU-stack","",@progbits
	.addrsig
	.addrsig_sym add_quote
	.addrsig_sym ft_printf
	.addrsig_sym __errno_location
	.addrsig_sym is_metacharacter
	.addrsig_sym is_quote