	.text
	.file	"token.c"
	.file	1 "/mnt/nfs/homes/cboukhal/42/minishell" "src/lexer/../../include/minishell.h"
	.globl	get_token_type                  # -- Begin function get_token_type
	.p2align	4, 0x90
	.type	get_token_type,@function
get_token_type:                         # @get_token_type
.Lfunc_begin0:
	.file	2 "/mnt/nfs/homes/cboukhal/42/minishell" "src/lexer/token.c"
	.loc	2 16 0                          # src/lexer/token.c:16:0
	.cfi_startproc
# %bb.0:
	pushq	%rbp
	.cfi_def_cfa_offset 16
	.cfi_offset %rbp, -16
	movq	%rsp, %rbp
	.cfi_def_cfa_register %rbp
	subq	$16, %rsp
	movq	%rdi, -16(%rbp)
.Ltmp0:
	.loc	2 17 19 prologue_end            # src/lexer/token.c:17:19
	movq	-16(%rbp), %rax
	.loc	2 17 6 is_stmt 0                # src/lexer/token.c:17:6
	movsbl	(%rax), %edi
	callq	is_operator
.Ltmp1:
	.loc	2 17 6                          # src/lexer/token.c:17:6
	testb	$1, %al
	jne	.LBB0_1
	jmp	.LBB0_2
.LBB0_1:
.Ltmp2:
	.loc	2 18 29 is_stmt 1               # src/lexer/token.c:18:29
	movq	-16(%rbp), %rdi
	.loc	2 18 11 is_stmt 0               # src/lexer/token.c:18:11
	callq	get_operator_type
	.loc	2 18 3                          # src/lexer/token.c:18:3
	movl	%eax, -4(%rbp)
	jmp	.LBB0_3
.LBB0_2:
	.loc	2 20 3 is_stmt 1                # src/lexer/token.c:20:3
	movl	$15, -4(%rbp)
.Ltmp3:
.LBB0_3:
	.loc	2 21 1                          # src/lexer/token.c:21:1
	movl	-4(%rbp), %eax
	addq	$16, %rsp
	popq	%rbp
	.cfi_def_cfa %rsp, 8
	retq
.Ltmp4:
.Lfunc_end0:
	.size	get_token_type, .Lfunc_end0-get_token_type
	.cfi_endproc
                                        # -- End function
	.globl	init_token_attr                 # -- Begin function init_token_attr
	.p2align	4, 0x90
	.type	init_token_attr,@function
init_token_attr:                        # @init_token_attr
.Lfunc_begin1:
	.loc	2 24 0                          # src/lexer/token.c:24:0
	.cfi_startproc
# %bb.0:
	pushq	%rbp
	.cfi_def_cfa_offset 16
	.cfi_offset %rbp, -16
	movq	%rsp, %rbp
	.cfi_def_cfa_register %rbp
	movq	%rdi, -8(%rbp)
.Ltmp5:
	.loc	2 25 4 prologue_end             # src/lexer/token.c:25:4
	movq	-8(%rbp), %rax
	.loc	2 25 3 is_stmt 0                # src/lexer/token.c:25:3
	movq	(%rax), %rax
	.loc	2 25 22                         # src/lexer/token.c:25:22
	movl	$0, 4(%rax)
	.loc	2 26 4 is_stmt 1                # src/lexer/token.c:26:4
	movq	-8(%rbp), %rax
	.loc	2 26 3 is_stmt 0                # src/lexer/token.c:26:3
	movq	(%rax), %rax
	.loc	2 26 19                         # src/lexer/token.c:26:19
	movl	$0, 8(%rax)
	.loc	2 27 4 is_stmt 1                # src/lexer/token.c:27:4
	movq	-8(%rbp), %rax
	.loc	2 27 3 is_stmt 0                # src/lexer/token.c:27:3
	movq	(%rax), %rax
	.loc	2 27 17                         # src/lexer/token.c:27:17
	movq	$0, 32(%rax)
	.loc	2 28 4 is_stmt 1                # src/lexer/token.c:28:4
	movq	-8(%rbp), %rax
	.loc	2 28 3 is_stmt 0                # src/lexer/token.c:28:3
	movq	(%rax), %rax
	.loc	2 28 17                         # src/lexer/token.c:28:17
	movq	$0, 40(%rax)
	.loc	2 29 4 is_stmt 1                # src/lexer/token.c:29:4
	movq	-8(%rbp), %rax
	.loc	2 29 3 is_stmt 0                # src/lexer/token.c:29:3
	movq	(%rax), %rax
	.loc	2 29 19                         # src/lexer/token.c:29:19
	movq	$0, 16(%rax)
	.loc	2 30 4 is_stmt 1                # src/lexer/token.c:30:4
	movq	-8(%rbp), %rax
	.loc	2 30 3 is_stmt 0                # src/lexer/token.c:30:3
	movq	(%rax), %rax
	.loc	2 30 22                         # src/lexer/token.c:30:22
	movq	$0, 24(%rax)
	.loc	2 31 1 is_stmt 1                # src/lexer/token.c:31:1
	popq	%rbp
	.cfi_def_cfa %rsp, 8
	retq
.Ltmp6:
.Lfunc_end1:
	.size	init_token_attr, .Lfunc_end1-init_token_attr
	.cfi_endproc
                                        # -- End function
	.globl	get_eof_token                   # -- Begin function get_eof_token
	.p2align	4, 0x90
	.type	get_eof_token,@function
get_eof_token:                          # @get_eof_token
.Lfunc_begin2:
	.loc	2 34 0                          # src/lexer/token.c:34:0
	.cfi_startproc
# %bb.0:
	pushq	%rbp
	.cfi_def_cfa_offset 16
	.cfi_offset %rbp, -16
	movq	%rsp, %rbp
	.cfi_def_cfa_register %rbp
	subq	$16, %rsp
	movq	%rdi, -8(%rbp)
.Ltmp7:
	.loc	2 37 8 prologue_end             # src/lexer/token.c:37:8
	movl	$48, %edi
	callq	malloc
	.loc	2 37 6 is_stmt 0                # src/lexer/token.c:37:6
	movq	%rax, -16(%rbp)
.Ltmp8:
	.loc	2 38 7 is_stmt 1                # src/lexer/token.c:38:7
	cmpq	$0, -16(%rbp)
.Ltmp9:
	.loc	2 38 6 is_stmt 0                # src/lexer/token.c:38:6
	jne	.LBB2_2
# %bb.1:
.Ltmp10:
	.loc	2 39 3 is_stmt 1                # src/lexer/token.c:39:3
	movabsq	$.L.str, %rdi
	callq	perror
.Ltmp11:
.LBB2_2:
	.loc	2 40 2                          # src/lexer/token.c:40:2
	leaq	-16(%rbp), %rdi
	callq	init_token_attr
	.loc	2 41 2                          # src/lexer/token.c:41:2
	movq	-16(%rbp), %rax
	.loc	2 41 12 is_stmt 0               # src/lexer/token.c:41:12
	movl	$18, (%rax)
.Ltmp12:
	.loc	2 42 8 is_stmt 1                # src/lexer/token.c:42:8
	movq	-8(%rbp), %rax
	.loc	2 42 6 is_stmt 0                # src/lexer/token.c:42:6
	cmpq	$0, (%rax)
.Ltmp13:
	.loc	2 42 6                          # src/lexer/token.c:42:6
	je	.LBB2_4
# %bb.3:
.Ltmp14:
	.loc	2 44 20 is_stmt 1               # src/lexer/token.c:44:20
	movq	-16(%rbp), %rcx
	.loc	2 44 5 is_stmt 0                # src/lexer/token.c:44:5
	movq	-8(%rbp), %rax
	.loc	2 44 4                          # src/lexer/token.c:44:4
	movq	(%rax), %rax
	.loc	2 44 18                         # src/lexer/token.c:44:18
	movq	%rcx, 40(%rax)
	.loc	2 45 17 is_stmt 1               # src/lexer/token.c:45:17
	movq	-8(%rbp), %rax
	.loc	2 45 16 is_stmt 0               # src/lexer/token.c:45:16
	movq	(%rax), %rcx
	.loc	2 45 3                          # src/lexer/token.c:45:3
	movq	-16(%rbp), %rax
	.loc	2 45 13                         # src/lexer/token.c:45:13
	movq	%rcx, 32(%rax)
	.loc	2 46 2 is_stmt 1                # src/lexer/token.c:46:2
	jmp	.LBB2_5
.Ltmp15:
.LBB2_4:
	.loc	2 48 14                         # src/lexer/token.c:48:14
	movq	-16(%rbp), %rcx
	.loc	2 48 5 is_stmt 0                # src/lexer/token.c:48:5
	movq	-8(%rbp), %rax
	.loc	2 48 12                         # src/lexer/token.c:48:12
	movq	%rcx, (%rax)
.Ltmp16:
.LBB2_5:
	.loc	2 49 1 is_stmt 1                # src/lexer/token.c:49:1
	addq	$16, %rsp
	popq	%rbp
	.cfi_def_cfa %rsp, 8
	retq
.Ltmp17:
.Lfunc_end2:
	.size	get_eof_token, .Lfunc_end2-get_eof_token
	.cfi_endproc
                                        # -- End function
	.globl	create_token                    # -- Begin function create_token
	.p2align	4, 0x90
	.type	create_token,@function
create_token:                           # @create_token
.Lfunc_begin3:
	.loc	2 52 0                          # src/lexer/token.c:52:0
	.cfi_startproc
# %bb.0:
	pushq	%rbp
	.cfi_def_cfa_offset 16
	.cfi_offset %rbp, -16
	movq	%rsp, %rbp
	.cfi_def_cfa_register %rbp
	subq	$32, %rsp
	movq	%rdi, -16(%rbp)
	movq	%rsi, -24(%rbp)
.Ltmp18:
	.loc	2 55 7 prologue_end             # src/lexer/token.c:55:7
	cmpq	$0, -16(%rbp)
	.loc	2 55 13 is_stmt 0               # src/lexer/token.c:55:13
	je	.LBB3_2
# %bb.1:
	.loc	2 55 18                         # src/lexer/token.c:55:18
	movq	-16(%rbp), %rax
	.loc	2 55 17                         # src/lexer/token.c:55:17
	cmpb	$0, (%rax)
.Ltmp19:
	.loc	2 55 6                          # src/lexer/token.c:55:6
	jne	.LBB3_3
.LBB3_2:
.Ltmp20:
	.loc	2 56 3 is_stmt 1                # src/lexer/token.c:56:3
	movq	$0, -8(%rbp)
	jmp	.LBB3_11
.Ltmp21:
.LBB3_3:
	.loc	2 57 8                          # src/lexer/token.c:57:8
	movl	$48, %edi
	callq	malloc
	.loc	2 57 6 is_stmt 0                # src/lexer/token.c:57:6
	movq	%rax, -32(%rbp)
.Ltmp22:
	.loc	2 58 7 is_stmt 1                # src/lexer/token.c:58:7
	cmpq	$0, -32(%rbp)
.Ltmp23:
	.loc	2 58 6 is_stmt 0                # src/lexer/token.c:58:6
	jne	.LBB3_5
# %bb.4:
.Ltmp24:
	.loc	2 59 11 is_stmt 1               # src/lexer/token.c:59:11
	movabsq	$.L.str, %rdi
	callq	perror
	.loc	2 59 3 is_stmt 0                # src/lexer/token.c:59:3
	movq	$0, -8(%rbp)
	jmp	.LBB3_11
.Ltmp25:
.LBB3_5:
	.loc	2 60 2 is_stmt 1                # src/lexer/token.c:60:2
	leaq	-32(%rbp), %rdi
	callq	init_token_attr
	.loc	2 61 29                         # src/lexer/token.c:61:29
	movq	-16(%rbp), %rdi
	.loc	2 61 14 is_stmt 0               # src/lexer/token.c:61:14
	callq	get_token_type
	movl	%eax, %ecx
	.loc	2 61 2                          # src/lexer/token.c:61:2
	movq	-32(%rbp), %rax
	.loc	2 61 12                         # src/lexer/token.c:61:12
	movl	%ecx, (%rax)
.Ltmp26:
	.loc	2 62 23 is_stmt 1               # src/lexer/token.c:62:23
	movq	-32(%rbp), %rax
	.loc	2 62 28 is_stmt 0               # src/lexer/token.c:62:28
	movl	(%rax), %edi
	.loc	2 62 6                          # src/lexer/token.c:62:6
	callq	type_is_operator
.Ltmp27:
	.loc	2 62 6                          # src/lexer/token.c:62:6
	testb	$1, %al
	jne	.LBB3_6
	jmp	.LBB3_7
.LBB3_6:
.Ltmp28:
	.loc	2 63 22 is_stmt 1               # src/lexer/token.c:63:22
	movq	-16(%rbp), %rdi
	.loc	2 63 3 is_stmt 0                # src/lexer/token.c:63:3
	leaq	-32(%rbp), %rsi
	callq	get_operator_token
	jmp	.LBB3_8
.LBB3_7:
	.loc	2 65 18 is_stmt 1               # src/lexer/token.c:65:18
	movq	-16(%rbp), %rdi
	.loc	2 65 3 is_stmt 0                # src/lexer/token.c:65:3
	leaq	-32(%rbp), %rsi
	callq	get_word_token
.Ltmp29:
.LBB3_8:
	.loc	2 66 24 is_stmt 1               # src/lexer/token.c:66:24
	movq	-32(%rbp), %rdi
	.loc	2 66 6 is_stmt 0                # src/lexer/token.c:66:6
	callq	is_operator_token
.Ltmp30:
	.loc	2 66 6                          # src/lexer/token.c:66:6
	testb	$1, %al
	jne	.LBB3_9
	jmp	.LBB3_10
.LBB3_9:
.Ltmp31:
	.loc	2 67 4 is_stmt 1                # src/lexer/token.c:67:4
	movq	-24(%rbp), %rax
	.loc	2 67 17 is_stmt 0               # src/lexer/token.c:67:17
	movl	(%rax), %ecx
	addl	$1, %ecx
	movl	%ecx, (%rax)
.Ltmp32:
.LBB3_10:
	.loc	2 68 10 is_stmt 1               # src/lexer/token.c:68:10
	movq	-32(%rbp), %rax
	.loc	2 68 2 is_stmt 0                # src/lexer/token.c:68:2
	movq	%rax, -8(%rbp)
.LBB3_11:
	.loc	2 69 1 is_stmt 1                # src/lexer/token.c:69:1
	movq	-8(%rbp), %rax
	addq	$32, %rsp
	popq	%rbp
	.cfi_def_cfa %rsp, 8
	retq
.Ltmp33:
.Lfunc_end3:
	.size	create_token, .Lfunc_end3-create_token
	.cfi_endproc
                                        # -- End function
	.type	.L.str,@object                  # @.str
	.section	.rodata.str1.1,"aMS",@progbits,1
.L.str:
	.asciz	"malloc"
	.size	.L.str, 7

	.section	".note.GNU-stack","",@progbits
	.addrsig
	.addrsig_sym get_token_type
	.addrsig_sym is_operator
	.addrsig_sym get_operator_type
	.addrsig_sym init_token_attr
	.addrsig_sym malloc
	.addrsig_sym perror
	.addrsig_sym type_is_operator
	.addrsig_sym get_operator_token
	.addrsig_sym get_word_token
	.addrsig_sym is_operator_token