	.text
	.file	"token_operator.c"
	.file	1 "/mnt/nfs/homes/jbocktor/student/group_minishell/more_hope/minigroups" "src/lexer/../../include/minishell.h"
	.globl	get_operator_length             # -- Begin function get_operator_length
	.p2align	4, 0x90
	.type	get_operator_length,@function
get_operator_length:                    # @get_operator_length
.Lfunc_begin0:
	.file	2 "/mnt/nfs/homes/jbocktor/student/group_minishell/more_hope/minigroups" "src/lexer/token_operator.c"
	.loc	2 16 0                          # src/lexer/token_operator.c:16:0
	.cfi_startproc
# %bb.0:
	pushq	%rbp
	.cfi_def_cfa_offset 16
	.cfi_offset %rbp, -16
	movq	%rsp, %rbp
	.cfi_def_cfa_register %rbp
	movl	%edi, -8(%rbp)
.Ltmp0:
	.loc	2 17 11 prologue_end            # src/lexer/token_operator.c:17:11
	cmpl	$13, -8(%rbp)
	.loc	2 17 21 is_stmt 0               # src/lexer/token_operator.c:17:21
	je	.LBB0_2
# %bb.1:
	.loc	2 17 29                         # src/lexer/token_operator.c:17:29
	cmpl	$14, -8(%rbp)
.Ltmp1:
	.loc	2 17 6                          # src/lexer/token_operator.c:17:6
	jne	.LBB0_3
.LBB0_2:
.Ltmp2:
	.loc	2 18 3 is_stmt 1                # src/lexer/token_operator.c:18:3
	movl	$2, -4(%rbp)
	jmp	.LBB0_4
.Ltmp3:
.LBB0_3:
	.loc	2 19 2                          # src/lexer/token_operator.c:19:2
	movl	$1, -4(%rbp)
.LBB0_4:
	.loc	2 20 1                          # src/lexer/token_operator.c:20:1
	movl	-4(%rbp), %eax
	popq	%rbp
	.cfi_def_cfa %rsp, 8
	retq
.Ltmp4:
.Lfunc_end0:
	.size	get_operator_length, .Lfunc_end0-get_operator_length
	.cfi_endproc
                                        # -- End function
	.globl	get_operator_lexeme             # -- Begin function get_operator_lexeme
	.p2align	4, 0x90
	.type	get_operator_lexeme,@function
get_operator_lexeme:                    # @get_operator_lexeme
.Lfunc_begin1:
	.loc	2 23 0                          # src/lexer/token_operator.c:23:0
	.cfi_startproc
# %bb.0:
	pushq	%rbp
	.cfi_def_cfa_offset 16
	.cfi_offset %rbp, -16
	movq	%rsp, %rbp
	.cfi_def_cfa_register %rbp
	subq	$32, %rsp
	movl	%edi, -12(%rbp)
	movl	%esi, -16(%rbp)
.Ltmp5:
	.loc	2 26 18 prologue_end            # src/lexer/token_operator.c:26:18
	movl	-16(%rbp), %eax
	.loc	2 26 25 is_stmt 0               # src/lexer/token_operator.c:26:25
	addl	$1, %eax
	.loc	2 26 18                         # src/lexer/token_operator.c:26:18
	movslq	%eax, %rdi
	.loc	2 26 11                         # src/lexer/token_operator.c:26:11
	callq	malloc
	.loc	2 26 9                          # src/lexer/token_operator.c:26:9
	movq	%rax, -24(%rbp)
.Ltmp6:
	.loc	2 27 7 is_stmt 1                # src/lexer/token_operator.c:27:7
	cmpq	$0, -24(%rbp)
.Ltmp7:
	.loc	2 27 6 is_stmt 0                # src/lexer/token_operator.c:27:6
	jne	.LBB1_2
# %bb.1:
.Ltmp8:
	.loc	2 28 3 is_stmt 1                # src/lexer/token_operator.c:28:3
	movq	$0, -8(%rbp)
	jmp	.LBB1_17
.Ltmp9:
.LBB1_2:
	.loc	2 29 11                         # src/lexer/token_operator.c:29:11
	cmpl	$0, -12(%rbp)
.Ltmp10:
	.loc	2 29 6 is_stmt 0                # src/lexer/token_operator.c:29:6
	jne	.LBB1_4
# %bb.3:
.Ltmp11:
	.loc	2 30 14 is_stmt 1               # src/lexer/token_operator.c:30:14
	movq	-24(%rbp), %rdi
	.loc	2 30 3 is_stmt 0                # src/lexer/token_operator.c:30:3
	movabsq	$.L.str, %rsi
	movl	$2, %edx
	callq	ft_strlcpy
	jmp	.LBB1_16
.LBB1_4:
.Ltmp12:
	.loc	2 31 16 is_stmt 1               # src/lexer/token_operator.c:31:16
	cmpl	$1, -12(%rbp)
.Ltmp13:
	.loc	2 31 11 is_stmt 0               # src/lexer/token_operator.c:31:11
	jne	.LBB1_6
# %bb.5:
.Ltmp14:
	.loc	2 32 14 is_stmt 1               # src/lexer/token_operator.c:32:14
	movq	-24(%rbp), %rdi
	.loc	2 32 3 is_stmt 0                # src/lexer/token_operator.c:32:3
	movabsq	$.L.str.1, %rsi
	movl	$2, %edx
	callq	ft_strlcpy
	jmp	.LBB1_15
.LBB1_6:
.Ltmp15:
	.loc	2 33 16 is_stmt 1               # src/lexer/token_operator.c:33:16
	cmpl	$8, -12(%rbp)
.Ltmp16:
	.loc	2 33 11 is_stmt 0               # src/lexer/token_operator.c:33:11
	jne	.LBB1_8
# %bb.7:
.Ltmp17:
	.loc	2 34 14 is_stmt 1               # src/lexer/token_operator.c:34:14
	movq	-24(%rbp), %rdi
	.loc	2 34 3 is_stmt 0                # src/lexer/token_operator.c:34:3
	movabsq	$.L.str.2, %rsi
	movl	$2, %edx
	callq	ft_strlcpy
	jmp	.LBB1_14
.LBB1_8:
.Ltmp18:
	.loc	2 35 16 is_stmt 1               # src/lexer/token_operator.c:35:16
	cmpl	$13, -12(%rbp)
.Ltmp19:
	.loc	2 35 11 is_stmt 0               # src/lexer/token_operator.c:35:11
	jne	.LBB1_10
# %bb.9:
.Ltmp20:
	.loc	2 36 14 is_stmt 1               # src/lexer/token_operator.c:36:14
	movq	-24(%rbp), %rdi
	.loc	2 36 3 is_stmt 0                # src/lexer/token_operator.c:36:3
	movabsq	$.L.str.3, %rsi
	movl	$3, %edx
	callq	ft_strlcpy
	jmp	.LBB1_13
.LBB1_10:
.Ltmp21:
	.loc	2 37 16 is_stmt 1               # src/lexer/token_operator.c:37:16
	cmpl	$14, -12(%rbp)
.Ltmp22:
	.loc	2 37 11 is_stmt 0               # src/lexer/token_operator.c:37:11
	jne	.LBB1_12
# %bb.11:
.Ltmp23:
	.loc	2 38 14 is_stmt 1               # src/lexer/token_operator.c:38:14
	movq	-24(%rbp), %rdi
	.loc	2 38 3 is_stmt 0                # src/lexer/token_operator.c:38:3
	movabsq	$.L.str.4, %rsi
	movl	$3, %edx
	callq	ft_strlcpy
.Ltmp24:
.LBB1_12:
	.loc	2 0 3                           # src/lexer/token_operator.c:0:3
	jmp	.LBB1_13
.LBB1_13:
	jmp	.LBB1_14
.LBB1_14:
	jmp	.LBB1_15
.LBB1_15:
	jmp	.LBB1_16
.LBB1_16:
	.loc	2 39 10 is_stmt 1               # src/lexer/token_operator.c:39:10
	movq	-24(%rbp), %rax
	.loc	2 39 2 is_stmt 0                # src/lexer/token_operator.c:39:2
	movq	%rax, -8(%rbp)
.LBB1_17:
	.loc	2 40 1 is_stmt 1                # src/lexer/token_operator.c:40:1
	movq	-8(%rbp), %rax
	addq	$32, %rsp
	popq	%rbp
	.cfi_def_cfa %rsp, 8
	retq
.Ltmp25:
.Lfunc_end1:
	.size	get_operator_lexeme, .Lfunc_end1-get_operator_lexeme
	.cfi_endproc
                                        # -- End function
	.globl	get_operator_token              # -- Begin function get_operator_token
	.p2align	4, 0x90
	.type	get_operator_token,@function
get_operator_token:                     # @get_operator_token
.Lfunc_begin2:
	.loc	2 43 0                          # src/lexer/token_operator.c:43:0
	.cfi_startproc
# %bb.0:
	pushq	%rbp
	.cfi_def_cfa_offset 16
	.cfi_offset %rbp, -16
	movq	%rsp, %rbp
	.cfi_def_cfa_register %rbp
	subq	$16, %rsp
	movq	%rdi, -8(%rbp)
	movq	%rsi, -16(%rbp)
.Ltmp26:
	.loc	2 44 8 prologue_end             # src/lexer/token_operator.c:44:8
	movq	-16(%rbp), %rax
	.loc	2 44 7 is_stmt 0                # src/lexer/token_operator.c:44:7
	movq	(%rax), %rax
	.loc	2 44 19                         # src/lexer/token_operator.c:44:19
	cmpl	$9, (%rax)
	.loc	2 44 30                         # src/lexer/token_operator.c:44:30
	je	.LBB2_4
# %bb.1:
	.loc	2 44 35                         # src/lexer/token_operator.c:44:35
	movq	-16(%rbp), %rax
	.loc	2 44 34                         # src/lexer/token_operator.c:44:34
	movq	(%rax), %rax
	.loc	2 44 46                         # src/lexer/token_operator.c:44:46
	cmpl	$11, (%rax)
	.loc	2 45 3 is_stmt 1                # src/lexer/token_operator.c:45:3
	je	.LBB2_4
# %bb.2:
	.loc	2 45 8 is_stmt 0                # src/lexer/token_operator.c:45:8
	movq	-16(%rbp), %rax
	.loc	2 45 7                          # src/lexer/token_operator.c:45:7
	movq	(%rax), %rax
	.loc	2 45 19                         # src/lexer/token_operator.c:45:19
	cmpl	$12, (%rax)
	.loc	2 45 29                         # src/lexer/token_operator.c:45:29
	je	.LBB2_4
# %bb.3:
	.loc	2 45 34                         # src/lexer/token_operator.c:45:34
	movq	-16(%rbp), %rax
	.loc	2 45 33                         # src/lexer/token_operator.c:45:33
	movq	(%rax), %rax
	.loc	2 45 45                         # src/lexer/token_operator.c:45:45
	cmpl	$10, (%rax)
.Ltmp27:
	.loc	2 44 6 is_stmt 1                # src/lexer/token_operator.c:44:6
	jne	.LBB2_5
.LBB2_4:
.Ltmp28:
	.loc	2 46 25                         # src/lexer/token_operator.c:46:25
	movq	-8(%rbp), %rdi
	.loc	2 46 33 is_stmt 0               # src/lexer/token_operator.c:46:33
	movq	-16(%rbp), %rax
	.loc	2 46 32                         # src/lexer/token_operator.c:46:32
	movq	(%rax), %rsi
	.loc	2 46 3                          # src/lexer/token_operator.c:46:3
	callq	get_redirection_token
	jmp	.LBB2_6
.LBB2_5:
.Ltmp29:
	.loc	2 49 42 is_stmt 1               # src/lexer/token_operator.c:49:42
	movq	-16(%rbp), %rax
	.loc	2 49 41 is_stmt 0               # src/lexer/token_operator.c:49:41
	movq	(%rax), %rax
	.loc	2 49 48                         # src/lexer/token_operator.c:49:48
	movl	(%rax), %edi
	.loc	2 49 20                         # src/lexer/token_operator.c:49:20
	callq	get_operator_length
	movl	%eax, %ecx
	.loc	2 49 5                          # src/lexer/token_operator.c:49:5
	movq	-16(%rbp), %rax
	.loc	2 49 4                          # src/lexer/token_operator.c:49:4
	movq	(%rax), %rax
	.loc	2 49 18                         # src/lexer/token_operator.c:49:18
	movl	%ecx, 8(%rax)
	.loc	2 50 42 is_stmt 1               # src/lexer/token_operator.c:50:42
	movq	-16(%rbp), %rax
	.loc	2 50 41 is_stmt 0               # src/lexer/token_operator.c:50:41
	movq	(%rax), %rax
	.loc	2 50 48                         # src/lexer/token_operator.c:50:48
	movl	(%rax), %edi
	.loc	2 50 56                         # src/lexer/token_operator.c:50:56
	movq	-16(%rbp), %rax
	.loc	2 50 55                         # src/lexer/token_operator.c:50:55
	movq	(%rax), %rax
	.loc	2 50 62                         # src/lexer/token_operator.c:50:62
	movl	8(%rax), %esi
	.loc	2 50 20                         # src/lexer/token_operator.c:50:20
	callq	get_operator_lexeme
	movq	%rax, %rcx
	.loc	2 50 5                          # src/lexer/token_operator.c:50:5
	movq	-16(%rbp), %rax
	.loc	2 50 4                          # src/lexer/token_operator.c:50:4
	movq	(%rax), %rax
	.loc	2 50 18                         # src/lexer/token_operator.c:50:18
	movq	%rcx, 16(%rax)
.Ltmp30:
.LBB2_6:
	.loc	2 52 1 is_stmt 1                # src/lexer/token_operator.c:52:1
	addq	$16, %rsp
	popq	%rbp
	.cfi_def_cfa %rsp, 8
	retq
.Ltmp31:
.Lfunc_end2:
	.size	get_operator_token, .Lfunc_end2-get_operator_token
	.cfi_endproc
                                        # -- End function
	.type	.L.str,@object                  # @.str
	.section	.rodata.str1.1,"aMS",@progbits,1
.L.str:
	.asciz	"("
	.size	.L.str, 2

	.type	.L.str.1,@object                # @.str.1
.L.str.1:
	.asciz	")"
	.size	.L.str.1, 2

	.type	.L.str.2,@object                # @.str.2
.L.str.2:
	.asciz	"|"
	.size	.L.str.2, 2

	.type	.L.str.3,@object                # @.str.3
.L.str.3:
	.asciz	"&&"
	.size	.L.str.3, 3

	.type	.L.str.4,@object                # @.str.4
.L.str.4:
	.asciz	"||"
	.size	.L.str.4, 3

	.section	".note.GNU-stack","",@progbits
	.addrsig
	.addrsig_sym get_operator_length
	.addrsig_sym get_operator_lexeme
	.addrsig_sym malloc
	.addrsig_sym ft_strlcpy
	.addrsig_sym get_redirection_token