	.text
	.file	"token_redirection.c"
	.file	1 "/mnt/nfs/homes/cboukhal/minishell" "src/lexer/../../include/minishell.h"
	.globl	get_redirection_length          # -- Begin function get_redirection_length
	.p2align	4, 0x90
	.type	get_redirection_length,@function
get_redirection_length:                 # @get_redirection_length
.Lfunc_begin0:
	.file	2 "/mnt/nfs/homes/cboukhal/minishell" "src/lexer/token_redirection.c"
	.loc	2 16 0                          # src/lexer/token_redirection.c:16:0
	.cfi_startproc
# %bb.0:
	pushq	%rbp
	.cfi_def_cfa_offset 16
	.cfi_offset %rbp, -16
	movq	%rsp, %rbp
	.cfi_def_cfa_register %rbp
	subq	$32, %rsp
	movq	%rdi, -8(%rbp)
	movl	%esi, -12(%rbp)
.Ltmp0:
	.loc	2 19 11 prologue_end            # src/lexer/token_redirection.c:19:11
	cmpl	$9, -12(%rbp)
	.loc	2 19 22 is_stmt 0               # src/lexer/token_redirection.c:19:22
	je	.LBB0_2
# %bb.1:
	.loc	2 19 30                         # src/lexer/token_redirection.c:19:30
	cmpl	$11, -12(%rbp)
.Ltmp1:
	.loc	2 19 6                          # src/lexer/token_redirection.c:19:6
	jne	.LBB0_3
.LBB0_2:
.Ltmp2:
	.loc	2 20 5 is_stmt 1                # src/lexer/token_redirection.c:20:5
	movl	$2, -16(%rbp)
	.loc	2 20 3 is_stmt 0                # src/lexer/token_redirection.c:20:3
	jmp	.LBB0_4
.LBB0_3:
	.loc	2 22 5 is_stmt 1                # src/lexer/token_redirection.c:22:5
	movl	$1, -16(%rbp)
.Ltmp3:
.LBB0_4:
	.loc	2 23 2                          # src/lexer/token_redirection.c:23:2
	jmp	.LBB0_5
.LBB0_5:                                # =>This Inner Loop Header: Depth=1
	.loc	2 23 9 is_stmt 0                # src/lexer/token_redirection.c:23:9
	movq	-8(%rbp), %rax
	movslq	-16(%rbp), %rcx
	movsbl	(%rax,%rcx), %ecx
	xorl	%eax, %eax
                                        # kill: def $al killed $al killed $eax
	cmpl	$0, %ecx
	movb	%al, -17(%rbp)                  # 1-byte Spill
	.loc	2 23 18                         # src/lexer/token_redirection.c:23:18
	je	.LBB0_7
# %bb.6:                                #   in Loop: Header=BB0_5 Depth=1
	.loc	2 23 30                         # src/lexer/token_redirection.c:23:30
	movq	-8(%rbp), %rax
	movslq	-16(%rbp), %rcx
	.loc	2 23 21                         # src/lexer/token_redirection.c:23:21
	movsbl	(%rax,%rcx), %edi
	callq	is_blank
	andb	$1, %al
	movzbl	%al, %eax
	.loc	2 23 40                         # src/lexer/token_redirection.c:23:40
	cmpl	$1, %eax
	sete	%al
	movb	%al, -17(%rbp)                  # 1-byte Spill
.LBB0_7:                                #   in Loop: Header=BB0_5 Depth=1
	.loc	2 0 40                          # src/lexer/token_redirection.c:0:40
	movb	-17(%rbp), %al                  # 1-byte Reload
	.loc	2 23 2                          # src/lexer/token_redirection.c:23:2
	testb	$1, %al
	jne	.LBB0_8
	jmp	.LBB0_9
.LBB0_8:                                #   in Loop: Header=BB0_5 Depth=1
	.loc	2 24 4 is_stmt 1                # src/lexer/token_redirection.c:24:4
	movl	-16(%rbp), %eax
	addl	$1, %eax
	movl	%eax, -16(%rbp)
	.loc	2 23 2                          # src/lexer/token_redirection.c:23:2
	jmp	.LBB0_5
.LBB0_9:
	.loc	2 25 2                          # src/lexer/token_redirection.c:25:2
	jmp	.LBB0_10
.LBB0_10:                               # =>This Inner Loop Header: Depth=1
	.loc	2 25 9 is_stmt 0                # src/lexer/token_redirection.c:25:9
	movq	-8(%rbp), %rax
	movslq	-16(%rbp), %rcx
	movsbl	(%rax,%rcx), %ecx
	xorl	%eax, %eax
                                        # kill: def $al killed $al killed $eax
	cmpl	$0, %ecx
	movb	%al, -18(%rbp)                  # 1-byte Spill
	.loc	2 25 18                         # src/lexer/token_redirection.c:25:18
	je	.LBB0_13
# %bb.11:                               #   in Loop: Header=BB0_10 Depth=1
	.loc	2 25 21                         # src/lexer/token_redirection.c:25:21
	callq	__errno_location
	movq	%rax, %rcx
	.loc	2 25 27                         # src/lexer/token_redirection.c:25:27
	xorl	%eax, %eax
                                        # kill: def $al killed $al killed $eax
	cmpl	$0, (%rcx)
	movb	%al, -18(%rbp)                  # 1-byte Spill
	.loc	2 26 3 is_stmt 1                # src/lexer/token_redirection.c:26:3
	jne	.LBB0_13
# %bb.12:                               #   in Loop: Header=BB0_10 Depth=1
	.loc	2 26 23 is_stmt 0               # src/lexer/token_redirection.c:26:23
	movq	-8(%rbp), %rax
	movslq	-16(%rbp), %rcx
	.loc	2 26 6                          # src/lexer/token_redirection.c:26:6
	movsbl	(%rax,%rcx), %edi
	callq	is_metacharacter
	andb	$1, %al
	movzbl	%al, %eax
	.loc	2 26 33                         # src/lexer/token_redirection.c:26:33
	cmpl	$0, %eax
	sete	%al
	movb	%al, -18(%rbp)                  # 1-byte Spill
.LBB0_13:                               #   in Loop: Header=BB0_10 Depth=1
	.loc	2 0 33                          # src/lexer/token_redirection.c:0:33
	movb	-18(%rbp), %al                  # 1-byte Reload
	.loc	2 25 2 is_stmt 1                # src/lexer/token_redirection.c:25:2
	testb	$1, %al
	jne	.LBB0_14
	jmp	.LBB0_17
.LBB0_14:                               #   in Loop: Header=BB0_10 Depth=1
.Ltmp4:
	.loc	2 28 16                         # src/lexer/token_redirection.c:28:16
	movq	-8(%rbp), %rax
	movslq	-16(%rbp), %rcx
	.loc	2 28 7 is_stmt 0                # src/lexer/token_redirection.c:28:7
	movsbl	(%rax,%rcx), %edi
	callq	is_quote
.Ltmp5:
	.loc	2 28 7                          # src/lexer/token_redirection.c:28:7
	testb	$1, %al
	jne	.LBB0_15
	jmp	.LBB0_16
.LBB0_15:                               #   in Loop: Header=BB0_10 Depth=1
.Ltmp6:
	.loc	2 29 20 is_stmt 1               # src/lexer/token_redirection.c:29:20
	movq	-8(%rbp), %rdi
	movslq	-16(%rbp), %rax
	addq	%rax, %rdi
	.loc	2 29 9 is_stmt 0                # src/lexer/token_redirection.c:29:9
	callq	add_quote
	.loc	2 29 6                          # src/lexer/token_redirection.c:29:6
	addl	-16(%rbp), %eax
	movl	%eax, -16(%rbp)
.Ltmp7:
.LBB0_16:                               #   in Loop: Header=BB0_10 Depth=1
	.loc	2 30 4 is_stmt 1                # src/lexer/token_redirection.c:30:4
	movl	-16(%rbp), %eax
	addl	$1, %eax
	movl	%eax, -16(%rbp)
.Ltmp8:
	.loc	2 25 2                          # src/lexer/token_redirection.c:25:2
	jmp	.LBB0_10
.LBB0_17:
	.loc	2 32 10                         # src/lexer/token_redirection.c:32:10
	movl	-16(%rbp), %eax
	.loc	2 32 2 is_stmt 0                # src/lexer/token_redirection.c:32:2
	addq	$32, %rsp
	popq	%rbp
	.cfi_def_cfa %rsp, 8
	retq
.Ltmp9:
.Lfunc_end0:
	.size	get_redirection_length, .Lfunc_end0-get_redirection_length
	.cfi_endproc
                                        # -- End function
	.globl	get_redirection_lexeme          # -- Begin function get_redirection_lexeme
	.p2align	4, 0x90
	.type	get_redirection_lexeme,@function
get_redirection_lexeme:                 # @get_redirection_lexeme
.Lfunc_begin1:
	.loc	2 36 0 is_stmt 1                # src/lexer/token_redirection.c:36:0
	.cfi_startproc
# %bb.0:
	pushq	%rbp
	.cfi_def_cfa_offset 16
	.cfi_offset %rbp, -16
	movq	%rsp, %rbp
	.cfi_def_cfa_register %rbp
	subq	$64, %rsp
	movq	%rdi, -16(%rbp)
	movl	%esi, -20(%rbp)
	movl	%edx, -24(%rbp)
.Ltmp10:
	.loc	2 43 18 prologue_end            # src/lexer/token_redirection.c:43:18
	movl	-20(%rbp), %eax
	.loc	2 43 25 is_stmt 0               # src/lexer/token_redirection.c:43:25
	subl	-24(%rbp), %eax
	.loc	2 43 37                         # src/lexer/token_redirection.c:43:37
	addl	$1, %eax
	.loc	2 43 18                         # src/lexer/token_redirection.c:43:18
	movslq	%eax, %rdi
	.loc	2 43 11                         # src/lexer/token_redirection.c:43:11
	callq	malloc
	.loc	2 43 9                          # src/lexer/token_redirection.c:43:9
	movq	%rax, -48(%rbp)
.Ltmp11:
	.loc	2 44 7 is_stmt 1                # src/lexer/token_redirection.c:44:7
	cmpq	$0, -48(%rbp)
.Ltmp12:
	.loc	2 44 6 is_stmt 0                # src/lexer/token_redirection.c:44:6
	jne	.LBB1_2
# %bb.1:
.Ltmp13:
	.loc	2 45 3 is_stmt 1                # src/lexer/token_redirection.c:45:3
	movq	$0, -8(%rbp)
	jmp	.LBB1_8
.Ltmp14:
.LBB1_2:
	.loc	2 46 4                          # src/lexer/token_redirection.c:46:4
	movl	$0, -28(%rbp)
	.loc	2 47 4                          # src/lexer/token_redirection.c:47:4
	movl	$0, -32(%rbp)
	.loc	2 48 8                          # src/lexer/token_redirection.c:48:8
	movb	$0, -33(%rbp)
	.loc	2 49 15                         # src/lexer/token_redirection.c:49:15
	movl	$0, -52(%rbp)
.LBB1_3:                                # =>This Inner Loop Header: Depth=1
	.loc	2 50 9                          # src/lexer/token_redirection.c:50:9
	movl	-32(%rbp), %eax
	.loc	2 50 13 is_stmt 0               # src/lexer/token_redirection.c:50:13
	movl	-20(%rbp), %ecx
	.loc	2 50 20                         # src/lexer/token_redirection.c:50:20
	subl	-24(%rbp), %ecx
	.loc	2 50 11                         # src/lexer/token_redirection.c:50:11
	cmpl	%ecx, %eax
	.loc	2 50 2                          # src/lexer/token_redirection.c:50:2
	jge	.LBB1_7
# %bb.4:                                #   in Loop: Header=BB1_3 Depth=1
.Ltmp15:
	.loc	2 52 16 is_stmt 1               # src/lexer/token_redirection.c:52:16
	movq	-16(%rbp), %rax
	movslq	-28(%rbp), %rcx
	.loc	2 52 7 is_stmt 0                # src/lexer/token_redirection.c:52:7
	movsbl	(%rax,%rcx), %edi
	callq	is_quote
.Ltmp16:
	.loc	2 52 7                          # src/lexer/token_redirection.c:52:7
	testb	$1, %al
	jne	.LBB1_5
	jmp	.LBB1_6
.LBB1_5:                                #   in Loop: Header=BB1_3 Depth=1
.Ltmp17:
	.loc	2 53 22 is_stmt 1               # src/lexer/token_redirection.c:53:22
	movq	-16(%rbp), %rax
	movslq	-28(%rbp), %rcx
	.loc	2 53 9 is_stmt 0                # src/lexer/token_redirection.c:53:9
	leaq	-33(%rbp), %rsi
	leaq	-52(%rbp), %rdx
	movsbl	(%rax,%rcx), %edi
	callq	remove_quote
	.loc	2 53 6                          # src/lexer/token_redirection.c:53:6
	addl	-28(%rbp), %eax
	movl	%eax, -28(%rbp)
.Ltmp18:
.LBB1_6:                                #   in Loop: Header=BB1_3 Depth=1
	.loc	2 54 15 is_stmt 1               # src/lexer/token_redirection.c:54:15
	movq	-16(%rbp), %rax
	movslq	-28(%rbp), %rcx
	movb	(%rax,%rcx), %dl
	.loc	2 54 3 is_stmt 0                # src/lexer/token_redirection.c:54:3
	movq	-48(%rbp), %rax
	movslq	-32(%rbp), %rcx
	.loc	2 54 13                         # src/lexer/token_redirection.c:54:13
	movb	%dl, (%rax,%rcx)
	.loc	2 55 4 is_stmt 1                # src/lexer/token_redirection.c:55:4
	movl	-28(%rbp), %eax
	addl	$1, %eax
	movl	%eax, -28(%rbp)
	.loc	2 56 4                          # src/lexer/token_redirection.c:56:4
	movl	-32(%rbp), %eax
	addl	$1, %eax
	movl	%eax, -32(%rbp)
.Ltmp19:
	.loc	2 50 2                          # src/lexer/token_redirection.c:50:2
	jmp	.LBB1_3
.LBB1_7:
	.loc	2 58 2                          # src/lexer/token_redirection.c:58:2
	movq	-48(%rbp), %rax
	movslq	-32(%rbp), %rcx
	.loc	2 58 12 is_stmt 0               # src/lexer/token_redirection.c:58:12
	movb	$0, (%rax,%rcx)
	.loc	2 59 10 is_stmt 1               # src/lexer/token_redirection.c:59:10
	movq	-48(%rbp), %rax
	.loc	2 59 2 is_stmt 0                # src/lexer/token_redirection.c:59:2
	movq	%rax, -8(%rbp)
.LBB1_8:
	.loc	2 60 1 is_stmt 1                # src/lexer/token_redirection.c:60:1
	movq	-8(%rbp), %rax
	addq	$64, %rsp
	popq	%rbp
	.cfi_def_cfa %rsp, 8
	retq
.Ltmp20:
.Lfunc_end1:
	.size	get_redirection_lexeme, .Lfunc_end1-get_redirection_lexeme
	.cfi_endproc
                                        # -- End function
	.globl	get_redirection_token           # -- Begin function get_redirection_token
	.p2align	4, 0x90
	.type	get_redirection_token,@function
get_redirection_token:                  # @get_redirection_token
.Lfunc_begin2:
	.loc	2 63 0                          # src/lexer/token_redirection.c:63:0
	.cfi_startproc
# %bb.0:
	pushq	%rbp
	.cfi_def_cfa_offset 16
	.cfi_offset %rbp, -16
	movq	%rsp, %rbp
	.cfi_def_cfa_register %rbp
	subq	$16, %rsp
	movq	%rdi, -8(%rbp)
	movq	%rsi, -16(%rbp)
.Ltmp21:
	.loc	2 64 39 prologue_end            # src/lexer/token_redirection.c:64:39
	movq	-8(%rbp), %rdi
	.loc	2 64 19 is_stmt 0               # src/lexer/token_redirection.c:64:19
	callq	get_token_quote_nbr
	movl	%eax, %ecx
	.loc	2 64 2                          # src/lexer/token_redirection.c:64:2
	movq	-16(%rbp), %rax
	.loc	2 64 17                         # src/lexer/token_redirection.c:64:17
	movl	%ecx, 4(%rax)
.Ltmp22:
	.loc	2 65 6 is_stmt 1                # src/lexer/token_redirection.c:65:6
	callq	__errno_location
	.loc	2 65 12 is_stmt 0               # src/lexer/token_redirection.c:65:12
	cmpl	$0, (%rax)
	.loc	2 65 17                         # src/lexer/token_redirection.c:65:17
	jne	.LBB2_3
# %bb.1:
	.loc	2 65 20                         # src/lexer/token_redirection.c:65:20
	movq	-16(%rbp), %rax
	.loc	2 65 35                         # src/lexer/token_redirection.c:65:35
	cmpl	$-1, 4(%rax)
.Ltmp23:
	.loc	2 65 6                          # src/lexer/token_redirection.c:65:6
	je	.LBB2_3
# %bb.2:
.Ltmp24:
	.loc	2 67 40 is_stmt 1               # src/lexer/token_redirection.c:67:40
	movq	-8(%rbp), %rdi
	.loc	2 67 47 is_stmt 0               # src/lexer/token_redirection.c:67:47
	movq	-16(%rbp), %rax
	.loc	2 67 52                         # src/lexer/token_redirection.c:67:52
	movl	(%rax), %esi
	.loc	2 67 17                         # src/lexer/token_redirection.c:67:17
	callq	get_redirection_length
	movl	%eax, %ecx
	.loc	2 67 3                          # src/lexer/token_redirection.c:67:3
	movq	-16(%rbp), %rax
	.loc	2 67 15                         # src/lexer/token_redirection.c:67:15
	movl	%ecx, 8(%rax)
	.loc	2 68 40 is_stmt 1               # src/lexer/token_redirection.c:68:40
	movq	-8(%rbp), %rdi
	.loc	2 68 47 is_stmt 0               # src/lexer/token_redirection.c:68:47
	movq	-16(%rbp), %rax
	.loc	2 68 52                         # src/lexer/token_redirection.c:68:52
	movl	8(%rax), %esi
	.loc	2 69 5 is_stmt 1                # src/lexer/token_redirection.c:69:5
	movq	-16(%rbp), %rax
	.loc	2 69 10 is_stmt 0               # src/lexer/token_redirection.c:69:10
	movl	4(%rax), %edx
	.loc	2 68 17 is_stmt 1               # src/lexer/token_redirection.c:68:17
	callq	get_redirection_lexeme
	movq	%rax, %rcx
	.loc	2 68 3 is_stmt 0                # src/lexer/token_redirection.c:68:3
	movq	-16(%rbp), %rax
	.loc	2 68 15                         # src/lexer/token_redirection.c:68:15
	movq	%rcx, 16(%rax)
	.loc	2 70 40 is_stmt 1               # src/lexer/token_redirection.c:70:40
	movq	-8(%rbp), %rdi
	.loc	2 70 47 is_stmt 0               # src/lexer/token_redirection.c:70:47
	movq	-16(%rbp), %rax
	.loc	2 70 52                         # src/lexer/token_redirection.c:70:52
	movl	8(%rax), %esi
	.loc	2 70 20                         # src/lexer/token_redirection.c:70:20
	callq	get_token_expansion
	movq	%rax, %rcx
	.loc	2 70 3                          # src/lexer/token_redirection.c:70:3
	movq	-16(%rbp), %rax
	.loc	2 70 18                         # src/lexer/token_redirection.c:70:18
	movq	%rcx, 24(%rax)
.Ltmp25:
.LBB2_3:
	.loc	2 72 1 is_stmt 1                # src/lexer/token_redirection.c:72:1
	addq	$16, %rsp
	popq	%rbp
	.cfi_def_cfa %rsp, 8
	retq
.Ltmp26:
.Lfunc_end2:
	.size	get_redirection_token, .Lfunc_end2-get_redirection_token
	.cfi_endproc
                                        # -- End function
	.section	".note.GNU-stack","",@progbits
	.addrsig
	.addrsig_sym get_redirection_length
	.addrsig_sym is_blank
	.addrsig_sym __errno_location
	.addrsig_sym is_metacharacter
	.addrsig_sym is_quote
	.addrsig_sym add_quote
	.addrsig_sym get_redirection_lexeme
	.addrsig_sym malloc
	.addrsig_sym remove_quote
	.addrsig_sym get_token_quote_nbr
	.addrsig_sym get_token_expansion