	.text
	.file	"type_word.c"
	.file	1 "/mnt/nfs/homes/cboukhal/42/minishell" "src/lexer/../../include/minishell.h"
	.globl	get_word_type                   # -- Begin function get_word_type
	.p2align	4, 0x90
	.type	get_word_type,@function
get_word_type:                          # @get_word_type
.Lfunc_begin0:
	.file	2 "/mnt/nfs/homes/cboukhal/42/minishell" "src/lexer/type_word.c"
	.loc	2 16 0                          # src/lexer/type_word.c:16:0
	.cfi_startproc
# %bb.0:
	pushq	%rbp
	.cfi_def_cfa_offset 16
	.cfi_offset %rbp, -16
	movq	%rsp, %rbp
	.cfi_def_cfa_register %rbp
	subq	$16, %rsp
	movq	%rdi, -16(%rbp)
.Ltmp0:
	.loc	2 17 7 prologue_end             # src/lexer/type_word.c:17:7
	movq	-16(%rbp), %rax
	.loc	2 17 6 is_stmt 0                # src/lexer/type_word.c:17:6
	movsbl	(%rax), %eax
	.loc	2 17 13                         # src/lexer/type_word.c:17:13
	cmpl	$36, %eax
.Ltmp1:
	.loc	2 17 6                          # src/lexer/type_word.c:17:6
	jne	.LBB0_7
# %bb.1:
.Ltmp2:
	.loc	2 19 8 is_stmt 1                # src/lexer/type_word.c:19:8
	movq	-16(%rbp), %rax
	addq	$1, %rax
	movq	%rax, -16(%rbp)
.Ltmp3:
	.loc	2 20 8                          # src/lexer/type_word.c:20:8
	movq	-16(%rbp), %rax
	.loc	2 20 7 is_stmt 0                # src/lexer/type_word.c:20:7
	movsbl	(%rax), %eax
	.loc	2 20 14                         # src/lexer/type_word.c:20:14
	cmpl	$63, %eax
.Ltmp4:
	.loc	2 20 7                          # src/lexer/type_word.c:20:7
	jne	.LBB0_3
# %bb.2:
.Ltmp5:
	.loc	2 21 4 is_stmt 1                # src/lexer/type_word.c:21:4
	movl	$4, -4(%rbp)
	jmp	.LBB0_8
.LBB0_3:
.Ltmp6:
	.loc	2 22 30                         # src/lexer/type_word.c:22:30
	movq	-16(%rbp), %rax
	.loc	2 22 12 is_stmt 0               # src/lexer/type_word.c:22:12
	movsbl	(%rax), %edi
	callq	is_metacharacter
	andb	$1, %al
	movzbl	%al, %eax
	.loc	2 22 37                         # src/lexer/type_word.c:22:37
	cmpl	$0, %eax
.Ltmp7:
	.loc	2 22 12                         # src/lexer/type_word.c:22:12
	jne	.LBB0_5
# %bb.4:
.Ltmp8:
	.loc	2 23 4 is_stmt 1                # src/lexer/type_word.c:23:4
	movl	$5, -4(%rbp)
	jmp	.LBB0_8
.Ltmp9:
.LBB0_5:
	.loc	2 0 4 is_stmt 0                 # src/lexer/type_word.c:0:4
	jmp	.LBB0_6
.LBB0_6:
	.loc	2 24 2 is_stmt 1                # src/lexer/type_word.c:24:2
	jmp	.LBB0_7
.Ltmp10:
.LBB0_7:
	.loc	2 25 2                          # src/lexer/type_word.c:25:2
	movl	$15, -4(%rbp)
.LBB0_8:
	.loc	2 26 1                          # src/lexer/type_word.c:26:1
	movl	-4(%rbp), %eax
	addq	$16, %rsp
	popq	%rbp
	.cfi_def_cfa %rsp, 8
	retq
.Ltmp11:
.Lfunc_end0:
	.size	get_word_type, .Lfunc_end0-get_word_type
	.cfi_endproc
                                        # -- End function
	.globl	get_quote_type                  # -- Begin function get_quote_type
	.p2align	4, 0x90
	.type	get_quote_type,@function
get_quote_type:                         # @get_quote_type
.Lfunc_begin1:
	.loc	2 29 0                          # src/lexer/type_word.c:29:0
	.cfi_startproc
# %bb.0:
	pushq	%rbp
	.cfi_def_cfa_offset 16
	.cfi_offset %rbp, -16
	movq	%rsp, %rbp
	.cfi_def_cfa_register %rbp
	movq	%rdi, -16(%rbp)
.Ltmp12:
	.loc	2 30 7 prologue_end             # src/lexer/type_word.c:30:7
	movq	-16(%rbp), %rax
	.loc	2 30 6 is_stmt 0                # src/lexer/type_word.c:30:6
	movsbl	(%rax), %eax
	.loc	2 30 13                         # src/lexer/type_word.c:30:13
	cmpl	$39, %eax
.Ltmp13:
	.loc	2 30 6                          # src/lexer/type_word.c:30:6
	jne	.LBB1_2
# %bb.1:
.Ltmp14:
	.loc	2 31 3 is_stmt 1                # src/lexer/type_word.c:31:3
	movl	$2, -4(%rbp)
	jmp	.LBB1_3
.Ltmp15:
.LBB1_2:
	.loc	2 32 2                          # src/lexer/type_word.c:32:2
	movl	$3, -4(%rbp)
.LBB1_3:
	.loc	2 33 1                          # src/lexer/type_word.c:33:1
	movl	-4(%rbp), %eax
	popq	%rbp
	.cfi_def_cfa %rsp, 8
	retq
.Ltmp16:
.Lfunc_end1:
	.size	get_quote_type, .Lfunc_end1-get_quote_type
	.cfi_endproc
                                        # -- End function
	.section	".note.GNU-stack","",@progbits
	.addrsig
	.addrsig_sym is_metacharacter