	.text
	.file	"type_operator.c"
	.file	1 "/mnt/nfs/homes/jbocktor/student/group_minishell/minigroup" "src/lexer/../../include/minishell.h"
	.globl	get_redirection_type            # -- Begin function get_redirection_type
	.p2align	4, 0x90
	.type	get_redirection_type,@function
get_redirection_type:                   # @get_redirection_type
.Lfunc_begin0:
	.file	2 "/mnt/nfs/homes/jbocktor/student/group_minishell/minigroup" "src/lexer/type_operator.c"
	.loc	2 16 0                          # src/lexer/type_operator.c:16:0
	.cfi_startproc
# %bb.0:
	pushq	%rbp
	.cfi_def_cfa_offset 16
	.cfi_offset %rbp, -16
	movq	%rsp, %rbp
	.cfi_def_cfa_register %rbp
	movb	%sil, %al
	movq	%rdi, -16(%rbp)
	movb	%al, -17(%rbp)
.Ltmp0:
	.loc	2 17 7 prologue_end             # src/lexer/type_operator.c:17:7
	movq	-16(%rbp), %rax
	addq	$1, %rax
	movq	%rax, -16(%rbp)
.Ltmp1:
	.loc	2 18 6                          # src/lexer/type_operator.c:18:6
	movsbl	-17(%rbp), %eax
	.loc	2 18 12 is_stmt 0               # src/lexer/type_operator.c:18:12
	cmpl	$62, %eax
.Ltmp2:
	.loc	2 18 6                          # src/lexer/type_operator.c:18:6
	jne	.LBB0_4
# %bb.1:
.Ltmp3:
	.loc	2 20 8 is_stmt 1                # src/lexer/type_operator.c:20:8
	movq	-16(%rbp), %rax
	.loc	2 20 7 is_stmt 0                # src/lexer/type_operator.c:20:7
	movsbl	(%rax), %eax
	.loc	2 20 14                         # src/lexer/type_operator.c:20:14
	cmpl	$62, %eax
.Ltmp4:
	.loc	2 20 7                          # src/lexer/type_operator.c:20:7
	jne	.LBB0_3
# %bb.2:
.Ltmp5:
	.loc	2 21 4 is_stmt 1                # src/lexer/type_operator.c:21:4
	movl	$11, -4(%rbp)
	jmp	.LBB0_10
.Ltmp6:
.LBB0_3:
	.loc	2 22 3                          # src/lexer/type_operator.c:22:3
	movl	$10, -4(%rbp)
	jmp	.LBB0_10
.Ltmp7:
.LBB0_4:
	.loc	2 24 11                         # src/lexer/type_operator.c:24:11
	movsbl	-17(%rbp), %eax
	.loc	2 24 17 is_stmt 0               # src/lexer/type_operator.c:24:17
	cmpl	$60, %eax
.Ltmp8:
	.loc	2 24 11                         # src/lexer/type_operator.c:24:11
	jne	.LBB0_8
# %bb.5:
.Ltmp9:
	.loc	2 26 8 is_stmt 1                # src/lexer/type_operator.c:26:8
	movq	-16(%rbp), %rax
	.loc	2 26 7 is_stmt 0                # src/lexer/type_operator.c:26:7
	movsbl	(%rax), %eax
	.loc	2 26 14                         # src/lexer/type_operator.c:26:14
	cmpl	$60, %eax
.Ltmp10:
	.loc	2 26 7                          # src/lexer/type_operator.c:26:7
	jne	.LBB0_7
# %bb.6:
.Ltmp11:
	.loc	2 27 4 is_stmt 1                # src/lexer/type_operator.c:27:4
	movl	$9, -4(%rbp)
	jmp	.LBB0_10
.Ltmp12:
.LBB0_7:
	.loc	2 28 3                          # src/lexer/type_operator.c:28:3
	movl	$12, -4(%rbp)
	jmp	.LBB0_10
.Ltmp13:
.LBB0_8:
	.loc	2 0 3 is_stmt 0                 # src/lexer/type_operator.c:0:3
	jmp	.LBB0_9
.LBB0_9:
	.loc	2 30 2 is_stmt 1                # src/lexer/type_operator.c:30:2
	movl	$2, -4(%rbp)
.LBB0_10:
	.loc	2 31 1                          # src/lexer/type_operator.c:31:1
	movl	-4(%rbp), %eax
	popq	%rbp
	.cfi_def_cfa %rsp, 8
	retq
.Ltmp14:
.Lfunc_end0:
	.size	get_redirection_type, .Lfunc_end0-get_redirection_type
	.cfi_endproc
                                        # -- End function
	.globl	get_logical_operator_type       # -- Begin function get_logical_operator_type
	.p2align	4, 0x90
	.type	get_logical_operator_type,@function
get_logical_operator_type:              # @get_logical_operator_type
.Lfunc_begin1:
	.loc	2 34 0                          # src/lexer/type_operator.c:34:0
	.cfi_startproc
# %bb.0:
	pushq	%rbp
	.cfi_def_cfa_offset 16
	.cfi_offset %rbp, -16
	movq	%rsp, %rbp
	.cfi_def_cfa_register %rbp
	movb	%sil, %al
	movq	%rdi, -16(%rbp)
	movb	%al, -17(%rbp)
.Ltmp15:
	.loc	2 35 7 prologue_end             # src/lexer/type_operator.c:35:7
	movq	-16(%rbp), %rax
	addq	$1, %rax
	movq	%rax, -16(%rbp)
.Ltmp16:
	.loc	2 36 6                          # src/lexer/type_operator.c:36:6
	movsbl	-17(%rbp), %eax
	.loc	2 36 12 is_stmt 0               # src/lexer/type_operator.c:36:12
	cmpl	$38, %eax
.Ltmp17:
	.loc	2 36 6                          # src/lexer/type_operator.c:36:6
	jne	.LBB1_4
# %bb.1:
.Ltmp18:
	.loc	2 38 8 is_stmt 1                # src/lexer/type_operator.c:38:8
	movq	-16(%rbp), %rax
	.loc	2 38 7 is_stmt 0                # src/lexer/type_operator.c:38:7
	movsbl	(%rax), %eax
	.loc	2 38 14                         # src/lexer/type_operator.c:38:14
	cmpl	$38, %eax
.Ltmp19:
	.loc	2 38 7                          # src/lexer/type_operator.c:38:7
	jne	.LBB1_3
# %bb.2:
.Ltmp20:
	.loc	2 39 4 is_stmt 1                # src/lexer/type_operator.c:39:4
	movl	$13, -4(%rbp)
	jmp	.LBB1_10
.Ltmp21:
.LBB1_3:
	.loc	2 40 3                          # src/lexer/type_operator.c:40:3
	movl	$3, -4(%rbp)
	jmp	.LBB1_10
.Ltmp22:
.LBB1_4:
	.loc	2 42 11                         # src/lexer/type_operator.c:42:11
	movsbl	-17(%rbp), %eax
	.loc	2 42 17 is_stmt 0               # src/lexer/type_operator.c:42:17
	cmpl	$124, %eax
.Ltmp23:
	.loc	2 42 11                         # src/lexer/type_operator.c:42:11
	jne	.LBB1_8
# %bb.5:
.Ltmp24:
	.loc	2 44 8 is_stmt 1                # src/lexer/type_operator.c:44:8
	movq	-16(%rbp), %rax
	.loc	2 44 7 is_stmt 0                # src/lexer/type_operator.c:44:7
	movsbl	(%rax), %eax
	.loc	2 44 14                         # src/lexer/type_operator.c:44:14
	cmpl	$124, %eax
.Ltmp25:
	.loc	2 44 7                          # src/lexer/type_operator.c:44:7
	jne	.LBB1_7
# %bb.6:
.Ltmp26:
	.loc	2 45 4 is_stmt 1                # src/lexer/type_operator.c:45:4
	movl	$14, -4(%rbp)
	jmp	.LBB1_10
.Ltmp27:
.LBB1_7:
	.loc	2 46 3                          # src/lexer/type_operator.c:46:3
	movl	$8, -4(%rbp)
	jmp	.LBB1_10
.Ltmp28:
.LBB1_8:
	.loc	2 0 3 is_stmt 0                 # src/lexer/type_operator.c:0:3
	jmp	.LBB1_9
.LBB1_9:
	.loc	2 48 2 is_stmt 1                # src/lexer/type_operator.c:48:2
	movl	$2, -4(%rbp)
.LBB1_10:
	.loc	2 49 1                          # src/lexer/type_operator.c:49:1
	movl	-4(%rbp), %eax
	popq	%rbp
	.cfi_def_cfa %rsp, 8
	retq
.Ltmp29:
.Lfunc_end1:
	.size	get_logical_operator_type, .Lfunc_end1-get_logical_operator_type
	.cfi_endproc
                                        # -- End function
	.globl	get_operator_type               # -- Begin function get_operator_type
	.p2align	4, 0x90
	.type	get_operator_type,@function
get_operator_type:                      # @get_operator_type
.Lfunc_begin2:
	.loc	2 52 0                          # src/lexer/type_operator.c:52:0
	.cfi_startproc
# %bb.0:
	pushq	%rbp
	.cfi_def_cfa_offset 16
	.cfi_offset %rbp, -16
	movq	%rsp, %rbp
	.cfi_def_cfa_register %rbp
	subq	$16, %rsp
	movq	%rdi, -16(%rbp)
.Ltmp30:
	.loc	2 53 7 prologue_end             # src/lexer/type_operator.c:53:7
	movq	-16(%rbp), %rax
	.loc	2 53 6 is_stmt 0                # src/lexer/type_operator.c:53:6
	movsbl	(%rax), %eax
	.loc	2 53 13                         # src/lexer/type_operator.c:53:13
	cmpl	$40, %eax
.Ltmp31:
	.loc	2 53 6                          # src/lexer/type_operator.c:53:6
	jne	.LBB2_2
# %bb.1:
.Ltmp32:
	.loc	2 54 3 is_stmt 1                # src/lexer/type_operator.c:54:3
	movl	$0, -4(%rbp)
	jmp	.LBB2_18
.LBB2_2:
.Ltmp33:
	.loc	2 55 12                         # src/lexer/type_operator.c:55:12
	movq	-16(%rbp), %rax
	.loc	2 55 11 is_stmt 0               # src/lexer/type_operator.c:55:11
	movsbl	(%rax), %eax
	.loc	2 55 18                         # src/lexer/type_operator.c:55:18
	cmpl	$41, %eax
.Ltmp34:
	.loc	2 55 11                         # src/lexer/type_operator.c:55:11
	jne	.LBB2_4
# %bb.3:
.Ltmp35:
	.loc	2 56 3 is_stmt 1                # src/lexer/type_operator.c:56:3
	movl	$1, -4(%rbp)
	jmp	.LBB2_18
.LBB2_4:
.Ltmp36:
	.loc	2 57 12                         # src/lexer/type_operator.c:57:12
	movq	-16(%rbp), %rax
	.loc	2 57 11 is_stmt 0               # src/lexer/type_operator.c:57:11
	movsbl	(%rax), %eax
	.loc	2 57 18                         # src/lexer/type_operator.c:57:18
	cmpl	$62, %eax
.Ltmp37:
	.loc	2 57 11                         # src/lexer/type_operator.c:57:11
	jne	.LBB2_6
# %bb.5:
.Ltmp38:
	.loc	2 58 32 is_stmt 1               # src/lexer/type_operator.c:58:32
	movq	-16(%rbp), %rdi
	.loc	2 58 11 is_stmt 0               # src/lexer/type_operator.c:58:11
	movl	$62, %esi
	callq	get_redirection_type
	.loc	2 58 3                          # src/lexer/type_operator.c:58:3
	movl	%eax, -4(%rbp)
	jmp	.LBB2_18
.LBB2_6:
.Ltmp39:
	.loc	2 59 12 is_stmt 1               # src/lexer/type_operator.c:59:12
	movq	-16(%rbp), %rax
	.loc	2 59 11 is_stmt 0               # src/lexer/type_operator.c:59:11
	movsbl	(%rax), %eax
	.loc	2 59 18                         # src/lexer/type_operator.c:59:18
	cmpl	$60, %eax
.Ltmp40:
	.loc	2 59 11                         # src/lexer/type_operator.c:59:11
	jne	.LBB2_8
# %bb.7:
.Ltmp41:
	.loc	2 60 32 is_stmt 1               # src/lexer/type_operator.c:60:32
	movq	-16(%rbp), %rdi
	.loc	2 60 11 is_stmt 0               # src/lexer/type_operator.c:60:11
	movl	$60, %esi
	callq	get_redirection_type
	.loc	2 60 3                          # src/lexer/type_operator.c:60:3
	movl	%eax, -4(%rbp)
	jmp	.LBB2_18
.LBB2_8:
.Ltmp42:
	.loc	2 61 12 is_stmt 1               # src/lexer/type_operator.c:61:12
	movq	-16(%rbp), %rax
	.loc	2 61 11 is_stmt 0               # src/lexer/type_operator.c:61:11
	movsbl	(%rax), %eax
	.loc	2 61 18                         # src/lexer/type_operator.c:61:18
	cmpl	$38, %eax
.Ltmp43:
	.loc	2 61 11                         # src/lexer/type_operator.c:61:11
	jne	.LBB2_10
# %bb.9:
.Ltmp44:
	.loc	2 62 37 is_stmt 1               # src/lexer/type_operator.c:62:37
	movq	-16(%rbp), %rdi
	.loc	2 62 11 is_stmt 0               # src/lexer/type_operator.c:62:11
	movl	$38, %esi
	callq	get_logical_operator_type
	.loc	2 62 3                          # src/lexer/type_operator.c:62:3
	movl	%eax, -4(%rbp)
	jmp	.LBB2_18
.LBB2_10:
.Ltmp45:
	.loc	2 63 12 is_stmt 1               # src/lexer/type_operator.c:63:12
	movq	-16(%rbp), %rax
	.loc	2 63 11 is_stmt 0               # src/lexer/type_operator.c:63:11
	movsbl	(%rax), %eax
	.loc	2 63 18                         # src/lexer/type_operator.c:63:18
	cmpl	$124, %eax
.Ltmp46:
	.loc	2 63 11                         # src/lexer/type_operator.c:63:11
	jne	.LBB2_12
# %bb.11:
.Ltmp47:
	.loc	2 64 37 is_stmt 1               # src/lexer/type_operator.c:64:37
	movq	-16(%rbp), %rdi
	.loc	2 64 11 is_stmt 0               # src/lexer/type_operator.c:64:11
	movl	$124, %esi
	callq	get_logical_operator_type
	.loc	2 64 3                          # src/lexer/type_operator.c:64:3
	movl	%eax, -4(%rbp)
	jmp	.LBB2_18
.Ltmp48:
.LBB2_12:
	.loc	2 0 3                           # src/lexer/type_operator.c:0:3
	jmp	.LBB2_13
.LBB2_13:
	jmp	.LBB2_14
.LBB2_14:
	jmp	.LBB2_15
.LBB2_15:
	jmp	.LBB2_16
.LBB2_16:
	jmp	.LBB2_17
.LBB2_17:
	.loc	2 65 2 is_stmt 1                # src/lexer/type_operator.c:65:2
	movl	$2, -4(%rbp)
.LBB2_18:
	.loc	2 66 1                          # src/lexer/type_operator.c:66:1
	movl	-4(%rbp), %eax
	addq	$16, %rsp
	popq	%rbp
	.cfi_def_cfa %rsp, 8
	retq
.Ltmp49:
.Lfunc_end2:
	.size	get_operator_type, .Lfunc_end2-get_operator_type
	.cfi_endproc
                                        # -- End function
	.section	".note.GNU-stack","",@progbits
	.addrsig
	.addrsig_sym get_redirection_type
	.addrsig_sym get_logical_operator_type