	.text
	.file	"print2.c"
	.globl	print_token                     # -- Begin function print_token
	.p2align	4, 0x90
	.type	print_token,@function
print_token:                            # @print_token
.Lfunc_begin0:
	.file	1 "/mnt/nfs/homes/cboukhal/minishell" "src/utils/print2.c"
	.loc	1 16 0                          # src/utils/print2.c:16:0
	.cfi_startproc
# %bb.0:
	pushq	%rbp
	.cfi_def_cfa_offset 16
	.cfi_offset %rbp, -16
	movq	%rsp, %rbp
	.cfi_def_cfa_register %rbp
	subq	$32, %rsp
	movq	%rdi, -8(%rbp)
.Ltmp0:
	.loc	1 20 4 prologue_end             # src/utils/print2.c:20:4
	movl	$0, -12(%rbp)
	.loc	1 21 10                         # src/utils/print2.c:21:10
	movq	-8(%rbp), %rax
	.loc	1 21 8 is_stmt 0                # src/utils/print2.c:21:8
	movq	%rax, -24(%rbp)
.LBB0_1:                                # =>This Inner Loop Header: Depth=1
	.loc	1 22 2 is_stmt 1                # src/utils/print2.c:22:2
	cmpq	$0, -24(%rbp)
	je	.LBB0_3
# %bb.2:                                #   in Loop: Header=BB0_1 Depth=1
.Ltmp1:
	.loc	1 24 31                         # src/utils/print2.c:24:31
	movl	-12(%rbp), %esi
	.loc	1 24 34 is_stmt 0               # src/utils/print2.c:24:34
	movq	-24(%rbp), %rax
	.loc	1 24 41                         # src/utils/print2.c:24:41
	movq	16(%rax), %rdx
	.loc	1 24 3                          # src/utils/print2.c:24:3
	movabsq	$.L.str, %rdi
	movb	$0, %al
	callq	ft_printf
	.loc	1 25 11 is_stmt 1               # src/utils/print2.c:25:11
	movq	-24(%rbp), %rax
	.loc	1 25 18 is_stmt 0               # src/utils/print2.c:25:18
	movq	40(%rax), %rax
	.loc	1 25 9                          # src/utils/print2.c:25:9
	movq	%rax, -24(%rbp)
	.loc	1 26 4 is_stmt 1                # src/utils/print2.c:26:4
	movl	-12(%rbp), %eax
	addl	$1, %eax
	movl	%eax, -12(%rbp)
.Ltmp2:
	.loc	1 22 2                          # src/utils/print2.c:22:2
	jmp	.LBB0_1
.LBB0_3:
	.loc	1 28 1                          # src/utils/print2.c:28:1
	addq	$32, %rsp
	popq	%rbp
	.cfi_def_cfa %rsp, 8
	retq
.Ltmp3:
.Lfunc_end0:
	.size	print_token, .Lfunc_end0-print_token
	.cfi_endproc
                                        # -- End function
	.globl	print_cmd_arg                   # -- Begin function print_cmd_arg
	.p2align	4, 0x90
	.type	print_cmd_arg,@function
print_cmd_arg:                          # @print_cmd_arg
.Lfunc_begin1:
	.loc	1 31 0                          # src/utils/print2.c:31:0
	.cfi_startproc
# %bb.0:
	pushq	%rbp
	.cfi_def_cfa_offset 16
	.cfi_offset %rbp, -16
	movq	%rsp, %rbp
	.cfi_def_cfa_register %rbp
	subq	$16, %rsp
	movq	%rdi, -8(%rbp)
.Ltmp4:
	.loc	1 34 4 prologue_end             # src/utils/print2.c:34:4
	movl	$0, -12(%rbp)
.LBB1_1:                                # =>This Inner Loop Header: Depth=1
	.loc	1 35 9                          # src/utils/print2.c:35:9
	movq	-8(%rbp), %rax
	movslq	-12(%rbp), %rcx
	.loc	1 35 2 is_stmt 0                # src/utils/print2.c:35:2
	cmpq	$0, (%rax,%rcx,8)
	je	.LBB1_3
# %bb.2:                                #   in Loop: Header=BB1_1 Depth=1
.Ltmp5:
	.loc	1 37 18 is_stmt 1               # src/utils/print2.c:37:18
	movq	-8(%rbp), %rax
	movslq	-12(%rbp), %rcx
	movq	(%rax,%rcx,8), %rsi
	.loc	1 37 3 is_stmt 0                # src/utils/print2.c:37:3
	movabsq	$.L.str.1, %rdi
	movb	$0, %al
	callq	printf
	.loc	1 38 4 is_stmt 1                # src/utils/print2.c:38:4
	movl	-12(%rbp), %eax
	addl	$1, %eax
	movl	%eax, -12(%rbp)
.Ltmp6:
	.loc	1 35 2                          # src/utils/print2.c:35:2
	jmp	.LBB1_1
.LBB1_3:
	.loc	1 40 1                          # src/utils/print2.c:40:1
	addq	$16, %rsp
	popq	%rbp
	.cfi_def_cfa %rsp, 8
	retq
.Ltmp7:
.Lfunc_end1:
	.size	print_cmd_arg, .Lfunc_end1-print_cmd_arg
	.cfi_endproc
                                        # -- End function
	.globl	print_cmd_table                 # -- Begin function print_cmd_table
	.p2align	4, 0x90
	.type	print_cmd_table,@function
print_cmd_table:                        # @print_cmd_table
.Lfunc_begin2:
	.loc	1 43 0                          # src/utils/print2.c:43:0
	.cfi_startproc
# %bb.0:
	pushq	%rbp
	.cfi_def_cfa_offset 16
	.cfi_offset %rbp, -16
	movq	%rsp, %rbp
	.cfi_def_cfa_register %rbp
	subq	$32, %rsp
	movq	%rdi, -8(%rbp)
.Ltmp8:
	.loc	1 47 8 prologue_end             # src/utils/print2.c:47:8
	movq	-8(%rbp), %rax
	.loc	1 47 6 is_stmt 0                # src/utils/print2.c:47:6
	movq	%rax, -16(%rbp)
.LBB2_1:                                # =>This Loop Header: Depth=1
                                        #     Child Loop BB2_3 Depth 2
	.loc	1 48 2 is_stmt 1                # src/utils/print2.c:48:2
	cmpq	$0, -16(%rbp)
	je	.LBB2_6
# %bb.2:                                #   in Loop: Header=BB2_1 Depth=1
.Ltmp9:
	.loc	1 50 9                          # src/utils/print2.c:50:9
	movq	-16(%rbp), %rax
	.loc	1 50 14 is_stmt 0               # src/utils/print2.c:50:14
	movq	32(%rax), %rax
	.loc	1 50 7                          # src/utils/print2.c:50:7
	movq	%rax, -24(%rbp)
	.loc	1 51 36 is_stmt 1               # src/utils/print2.c:51:36
	movq	-16(%rbp), %rax
	.loc	1 51 41 is_stmt 0               # src/utils/print2.c:51:41
	movl	8(%rax), %esi
	.loc	1 51 3                          # src/utils/print2.c:51:3
	movabsq	$.L.str.2, %rdi
	movb	$0, %al
	callq	ft_printf
.LBB2_3:                                #   Parent Loop BB2_1 Depth=1
                                        # =>  This Inner Loop Header: Depth=2
	.loc	1 52 3 is_stmt 1                # src/utils/print2.c:52:3
	cmpq	$0, -24(%rbp)
	je	.LBB2_5
# %bb.4:                                #   in Loop: Header=BB2_3 Depth=2
.Ltmp10:
	.loc	1 54 22                         # src/utils/print2.c:54:22
	movq	-24(%rbp), %rax
	.loc	1 54 27 is_stmt 0               # src/utils/print2.c:54:27
	movq	(%rax), %rsi
	.loc	1 54 4                          # src/utils/print2.c:54:4
	movabsq	$.L.str.1, %rdi
	movb	$0, %al
	callq	ft_printf
	.loc	1 55 10 is_stmt 1               # src/utils/print2.c:55:10
	movq	-24(%rbp), %rax
	.loc	1 55 15 is_stmt 0               # src/utils/print2.c:55:15
	movq	8(%rax), %rax
	.loc	1 55 8                          # src/utils/print2.c:55:8
	movq	%rax, -24(%rbp)
.Ltmp11:
	.loc	1 52 3 is_stmt 1                # src/utils/print2.c:52:3
	jmp	.LBB2_3
.LBB2_5:                                #   in Loop: Header=BB2_1 Depth=1
	.loc	1 57 9                          # src/utils/print2.c:57:9
	movq	-16(%rbp), %rax
	.loc	1 57 14 is_stmt 0               # src/utils/print2.c:57:14
	movq	96(%rax), %rax
	.loc	1 57 7                          # src/utils/print2.c:57:7
	movq	%rax, -16(%rbp)
.Ltmp12:
	.loc	1 48 2 is_stmt 1                # src/utils/print2.c:48:2
	jmp	.LBB2_1
.LBB2_6:
	.loc	1 59 1                          # src/utils/print2.c:59:1
	addq	$32, %rsp
	popq	%rbp
	.cfi_def_cfa %rsp, 8
	retq
.Ltmp13:
.Lfunc_end2:
	.size	print_cmd_table, .Lfunc_end2-print_cmd_table
	.cfi_endproc
                                        # -- End function
	.globl	print_cmd_redir                 # -- Begin function print_cmd_redir
	.p2align	4, 0x90
	.type	print_cmd_redir,@function
print_cmd_redir:                        # @print_cmd_redir
.Lfunc_begin3:
	.loc	1 62 0                          # src/utils/print2.c:62:0
	.cfi_startproc
# %bb.0:
	pushq	%rbp
	.cfi_def_cfa_offset 16
	.cfi_offset %rbp, -16
	movq	%rsp, %rbp
	.cfi_def_cfa_register %rbp
	subq	$16, %rsp
	movq	%rdi, -8(%rbp)
.Ltmp14:
	.loc	1 63 6 prologue_end             # src/utils/print2.c:63:6
	movq	-8(%rbp), %rax
	cmpq	$0, 8(%rax)
.Ltmp15:
	.loc	1 63 6 is_stmt 0                # src/utils/print2.c:63:6
	je	.LBB3_5
# %bb.1:
.Ltmp16:
	.loc	1 65 3 is_stmt 1                # src/utils/print2.c:65:3
	jmp	.LBB3_2
.LBB3_2:                                # =>This Inner Loop Header: Depth=1
	.loc	1 65 10 is_stmt 0               # src/utils/print2.c:65:10
	movq	-8(%rbp), %rax
	.loc	1 65 3                          # src/utils/print2.c:65:3
	cmpq	$0, 8(%rax)
	je	.LBB3_4
# %bb.3:                                #   in Loop: Header=BB3_2 Depth=1
.Ltmp17:
	.loc	1 67 19 is_stmt 1               # src/utils/print2.c:67:19
	movq	-8(%rbp), %rax
	.loc	1 67 26 is_stmt 0               # src/utils/print2.c:67:26
	movq	8(%rax), %rax
	.loc	1 67 34                         # src/utils/print2.c:67:34
	movq	8(%rax), %rsi
	.loc	1 67 4                          # src/utils/print2.c:67:4
	movabsq	$.L.str.1, %rdi
	movb	$0, %al
	callq	printf
	.loc	1 68 20 is_stmt 1               # src/utils/print2.c:68:20
	movq	-8(%rbp), %rax
	.loc	1 68 27 is_stmt 0               # src/utils/print2.c:68:27
	movq	8(%rax), %rax
	.loc	1 68 35                         # src/utils/print2.c:68:35
	movq	16(%rax), %rcx
	.loc	1 68 4                          # src/utils/print2.c:68:4
	movq	-8(%rbp), %rax
	.loc	1 68 18                         # src/utils/print2.c:68:18
	movq	%rcx, 8(%rax)
.Ltmp18:
	.loc	1 65 3 is_stmt 1                # src/utils/print2.c:65:3
	jmp	.LBB3_2
.LBB3_4:
	.loc	1 70 2                          # src/utils/print2.c:70:2
	jmp	.LBB3_5
.Ltmp19:
.LBB3_5:
	.loc	1 71 6                          # src/utils/print2.c:71:6
	movq	-8(%rbp), %rax
	cmpq	$0, 16(%rax)
.Ltmp20:
	.loc	1 71 6 is_stmt 0                # src/utils/print2.c:71:6
	je	.LBB3_10
# %bb.6:
.Ltmp21:
	.loc	1 73 3 is_stmt 1                # src/utils/print2.c:73:3
	jmp	.LBB3_7
.LBB3_7:                                # =>This Inner Loop Header: Depth=1
	.loc	1 73 10 is_stmt 0               # src/utils/print2.c:73:10
	movq	-8(%rbp), %rax
	.loc	1 73 3                          # src/utils/print2.c:73:3
	cmpq	$0, 16(%rax)
	je	.LBB3_9
# %bb.8:                                #   in Loop: Header=BB3_7 Depth=1
.Ltmp22:
	.loc	1 75 19 is_stmt 1               # src/utils/print2.c:75:19
	movq	-8(%rbp), %rax
	.loc	1 75 26 is_stmt 0               # src/utils/print2.c:75:26
	movq	16(%rax), %rax
	.loc	1 75 35                         # src/utils/print2.c:75:35
	movq	8(%rax), %rsi
	.loc	1 75 4                          # src/utils/print2.c:75:4
	movabsq	$.L.str.1, %rdi
	movb	$0, %al
	callq	printf
	.loc	1 76 21 is_stmt 1               # src/utils/print2.c:76:21
	movq	-8(%rbp), %rax
	.loc	1 76 28 is_stmt 0               # src/utils/print2.c:76:28
	movq	16(%rax), %rax
	.loc	1 76 37                         # src/utils/print2.c:76:37
	movq	16(%rax), %rcx
	.loc	1 76 4                          # src/utils/print2.c:76:4
	movq	-8(%rbp), %rax
	.loc	1 76 19                         # src/utils/print2.c:76:19
	movq	%rcx, 16(%rax)
.Ltmp23:
	.loc	1 73 3 is_stmt 1                # src/utils/print2.c:73:3
	jmp	.LBB3_7
.LBB3_9:
	.loc	1 78 2                          # src/utils/print2.c:78:2
	jmp	.LBB3_10
.Ltmp24:
.LBB3_10:
	.loc	1 79 1                          # src/utils/print2.c:79:1
	addq	$16, %rsp
	popq	%rbp
	.cfi_def_cfa %rsp, 8
	retq
.Ltmp25:
.Lfunc_end3:
	.size	print_cmd_redir, .Lfunc_end3-print_cmd_redir
	.cfi_endproc
                                        # -- End function
	.globl	print_syntax_tree               # -- Begin function print_syntax_tree
	.p2align	4, 0x90
	.type	print_syntax_tree,@function
print_syntax_tree:                      # @print_syntax_tree
.Lfunc_begin4:
	.loc	1 82 0                          # src/utils/print2.c:82:0
	.cfi_startproc
# %bb.0:
	pushq	%rbp
	.cfi_def_cfa_offset 16
	.cfi_offset %rbp, -16
	movq	%rsp, %rbp
	.cfi_def_cfa_register %rbp
	subq	$16, %rsp
	movq	%rdi, -8(%rbp)
.Ltmp26:
	.loc	1 83 2 prologue_end             # src/utils/print2.c:83:2
	movabsq	$.L.str.3, %rdi
	movb	$0, %al
	callq	ft_printf
.LBB4_1:                                # =>This Inner Loop Header: Depth=1
	.loc	1 84 2                          # src/utils/print2.c:84:2
	cmpq	$0, -8(%rbp)
	je	.LBB4_9
# %bb.2:                                #   in Loop: Header=BB4_1 Depth=1
.Ltmp27:
	.loc	1 86 3                          # src/utils/print2.c:86:3
	movabsq	$.L.str.4, %rdi
	movb	$0, %al
	callq	ft_printf
	.loc	1 87 21                         # src/utils/print2.c:87:21
	movq	-8(%rbp), %rax
	.loc	1 87 27 is_stmt 0               # src/utils/print2.c:87:27
	movq	(%rax), %rax
	.loc	1 87 33                         # src/utils/print2.c:87:33
	movl	4(%rax), %esi
	.loc	1 87 3                          # src/utils/print2.c:87:3
	movabsq	$.L.str.5, %rdi
	movb	$0, %al
	callq	ft_printf
.Ltmp28:
	.loc	1 88 7 is_stmt 1                # src/utils/print2.c:88:7
	movq	-8(%rbp), %rax
	cmpq	$0, (%rax)
.Ltmp29:
	.loc	1 88 7 is_stmt 0                # src/utils/print2.c:88:7
	je	.LBB4_8
# %bb.3:                                #   in Loop: Header=BB4_1 Depth=1
.Ltmp30:
	.loc	1 90 8 is_stmt 1                # src/utils/print2.c:90:8
	movq	-8(%rbp), %rax
	.loc	1 90 14 is_stmt 0               # src/utils/print2.c:90:14
	movq	(%rax), %rax
	.loc	1 90 8                          # src/utils/print2.c:90:8
	cmpq	$0, 24(%rax)
.Ltmp31:
	.loc	1 90 8                          # src/utils/print2.c:90:8
	je	.LBB4_5
# %bb.4:                                #   in Loop: Header=BB4_1 Depth=1
.Ltmp32:
	.loc	1 91 19 is_stmt 1               # src/utils/print2.c:91:19
	movq	-8(%rbp), %rax
	.loc	1 91 25 is_stmt 0               # src/utils/print2.c:91:25
	movq	(%rax), %rax
	.loc	1 91 31                         # src/utils/print2.c:91:31
	movq	24(%rax), %rax
	.loc	1 91 37                         # src/utils/print2.c:91:37
	movq	88(%rax), %rdi
	.loc	1 91 5                          # src/utils/print2.c:91:5
	callq	print_cmd_arg
.Ltmp33:
.LBB4_5:                                #   in Loop: Header=BB4_1 Depth=1
	.loc	1 92 8 is_stmt 1                # src/utils/print2.c:92:8
	movq	-8(%rbp), %rax
	.loc	1 92 14 is_stmt 0               # src/utils/print2.c:92:14
	movq	(%rax), %rax
	.loc	1 92 8                          # src/utils/print2.c:92:8
	cmpq	$0, 32(%rax)
.Ltmp34:
	.loc	1 92 8                          # src/utils/print2.c:92:8
	je	.LBB4_7
# %bb.6:                                #   in Loop: Header=BB4_1 Depth=1
.Ltmp35:
	.loc	1 93 19 is_stmt 1               # src/utils/print2.c:93:19
	movq	-8(%rbp), %rax
	.loc	1 93 25 is_stmt 0               # src/utils/print2.c:93:25
	movq	(%rax), %rax
	.loc	1 93 31                         # src/utils/print2.c:93:31
	movq	32(%rax), %rax
	.loc	1 93 38                         # src/utils/print2.c:93:38
	movq	88(%rax), %rdi
	.loc	1 93 5                          # src/utils/print2.c:93:5
	callq	print_cmd_arg
.Ltmp36:
.LBB4_7:                                #   in Loop: Header=BB4_1 Depth=1
	.loc	1 94 3 is_stmt 1                # src/utils/print2.c:94:3
	jmp	.LBB4_8
.Ltmp37:
.LBB4_8:                                #   in Loop: Header=BB4_1 Depth=1
	.loc	1 95 3                          # src/utils/print2.c:95:3
	movabsq	$.L.str.6, %rdi
	movb	$0, %al
	callq	ft_printf
	.loc	1 96 10                         # src/utils/print2.c:96:10
	movq	-8(%rbp), %rax
	.loc	1 96 16 is_stmt 0               # src/utils/print2.c:96:16
	movq	8(%rax), %rax
	.loc	1 96 8                          # src/utils/print2.c:96:8
	movq	%rax, -8(%rbp)
.Ltmp38:
	.loc	1 84 2 is_stmt 1                # src/utils/print2.c:84:2
	jmp	.LBB4_1
.LBB4_9:
	.loc	1 98 1                          # src/utils/print2.c:98:1
	addq	$16, %rsp
	popq	%rbp
	.cfi_def_cfa %rsp, 8
	retq
.Ltmp39:
.Lfunc_end4:
	.size	print_syntax_tree, .Lfunc_end4-print_syntax_tree
	.cfi_endproc
                                        # -- End function
	.type	.L.str,@object                  # @.str
	.section	.rodata.str1.1,"aMS",@progbits,1
.L.str:
	.asciz	"Token[%d]=%s\n"
	.size	.L.str, 14

	.type	.L.str.1,@object                # @.str.1
.L.str.1:
	.asciz	"%s\n"
	.size	.L.str.1, 4

	.type	.L.str.2,@object                # @.str.2
.L.str.2:
	.asciz	"COMMAND TYPE = %d\n"
	.size	.L.str.2, 19

	.type	.L.str.3,@object                # @.str.3
.L.str.3:
	.asciz	"Program\n|"
	.size	.L.str.3, 10

	.type	.L.str.4,@object                # @.str.4
.L.str.4:
	.asciz	"_"
	.size	.L.str.4, 2

	.type	.L.str.5,@object                # @.str.5
.L.str.5:
	.asciz	"%d\n"
	.size	.L.str.5, 4

	.type	.L.str.6,@object                # @.str.6
.L.str.6:
	.asciz	"\n"
	.size	.L.str.6, 2

	.file	2 "/mnt/nfs/homes/cboukhal/minishell" "src/utils/../../include/minishell.h"
	.section	".note.GNU-stack","",@progbits
	.addrsig
	.addrsig_sym ft_printf
	.addrsig_sym print_cmd_arg
	.addrsig_sym printf