	.text
	.file	"main.c"
	.file	1 "/mnt/nfs/homes/cboukhal/42/minishell" "src/../include/minishell.h"
	.globl	test_mode                       # -- Begin function test_mode
	.p2align	4, 0x90
	.type	test_mode,@function
test_mode:                              # @test_mode
.Lfunc_begin0:
	.file	2 "/mnt/nfs/homes/cboukhal/42/minishell" "src/main.c"
	.loc	2 75 0                          # src/main.c:75:0
	.cfi_startproc
# %bb.0:
	pushq	%rbp
	.cfi_def_cfa_offset 16
	.cfi_offset %rbp, -16
	movq	%rsp, %rbp
	.cfi_def_cfa_register %rbp
	subq	$32, %rsp
	movq	%rdi, -8(%rbp)
	movl	%esi, -12(%rbp)
	movq	%rdx, -24(%rbp)
.Ltmp0:
	.loc	2 82 11 prologue_end            # src/main.c:82:11
	cmpl	$2, -12(%rbp)
.Ltmp1:
	.loc	2 82 6 is_stmt 0                # src/main.c:82:6
	jne	.LBB0_2
# %bb.1:
.Ltmp2:
	.loc	2 84 20 is_stmt 1               # src/main.c:84:20
	movq	-8(%rbp), %rdi
	.loc	2 84 31 is_stmt 0               # src/main.c:84:31
	movq	-24(%rbp), %rsi
	.loc	2 84 3                          # src/main.c:84:3
	callq	lexical_analysis
	.loc	2 85 11 is_stmt 1               # src/main.c:85:11
	movq	-8(%rbp), %rdi
	.loc	2 85 3 is_stmt 0                # src/main.c:85:3
	callq	parsing
	.loc	2 86 13 is_stmt 1               # src/main.c:86:13
	movq	-8(%rbp), %rdi
	.loc	2 86 3 is_stmt 0                # src/main.c:86:3
	callq	execution
	.loc	2 87 17 is_stmt 1               # src/main.c:87:17
	movq	-8(%rbp), %rax
	movzbl	44(%rax), %eax
	.loc	2 87 15 is_stmt 0               # src/main.c:87:15
	movl	%eax, -28(%rbp)
	.loc	2 88 17 is_stmt 1               # src/main.c:88:17
	movq	-8(%rbp), %rdi
	.loc	2 88 3 is_stmt 0                # src/main.c:88:3
	callq	clean_program
	.loc	2 89 8 is_stmt 1                # src/main.c:89:8
	movl	-28(%rbp), %edi
	.loc	2 89 3 is_stmt 0                # src/main.c:89:3
	callq	exit
.Ltmp3:
.LBB0_2:
	.loc	2 91 2 is_stmt 1                # src/main.c:91:2
	movabsq	$.L.str, %rdi
	movb	$0, %al
	callq	ft_printf
	.loc	2 92 16                         # src/main.c:92:16
	movq	-8(%rbp), %rdi
	.loc	2 92 2 is_stmt 0                # src/main.c:92:2
	callq	clean_program
	.loc	2 93 2 is_stmt 1                # src/main.c:93:2
	movl	$1, %edi
	callq	exit
.Ltmp4:
.Lfunc_end0:
	.size	test_mode, .Lfunc_end0-test_mode
	.cfi_endproc
                                        # -- End function
	.globl	main                            # -- Begin function main
	.p2align	4, 0x90
	.type	main,@function
main:                                   # @main
.Lfunc_begin1:
	.loc	2 97 0                          # src/main.c:97:0
	.cfi_startproc
# %bb.0:
	pushq	%rbp
	.cfi_def_cfa_offset 16
	.cfi_offset %rbp, -16
	movq	%rsp, %rbp
	.cfi_def_cfa_register %rbp
	subq	$288, %rsp                      # imm = 0x120
	movl	$0, -4(%rbp)
	movl	%edi, -8(%rbp)
	movq	%rsi, -16(%rbp)
	movq	%rdx, -24(%rbp)
.Ltmp5:
	.loc	2 101 29 prologue_end           # src/main.c:101:29
	movq	-24(%rbp), %rsi
	.loc	2 101 2 is_stmt 0               # src/main.c:101:2
	leaq	-280(%rbp), %rdi
	callq	init_minishell
.Ltmp6:
	.loc	2 102 11 is_stmt 1              # src/main.c:102:11
	cmpl	$1, -8(%rbp)
.Ltmp7:
	.loc	2 102 6 is_stmt 0               # src/main.c:102:6
	jle	.LBB1_2
# %bb.1:
.Ltmp8:
	.loc	2 103 25 is_stmt 1              # src/main.c:103:25
	movl	-8(%rbp), %esi
	.loc	2 103 31 is_stmt 0              # src/main.c:103:31
	movq	-16(%rbp), %rax
	movq	8(%rax), %rdx
	.loc	2 103 3                         # src/main.c:103:3
	leaq	-280(%rbp), %rdi
	callq	test_mode
.Ltmp9:
.LBB1_2:
	.loc	2 104 2 is_stmt 1               # src/main.c:104:2
	jmp	.LBB1_3
.LBB1_3:                                # =>This Inner Loop Header: Depth=1
	.loc	2 104 25 is_stmt 0              # src/main.c:104:25
	xorl	%eax, %eax
                                        # kill: def $al killed $al killed $eax
	cmpl	$0, -272(%rbp)
	movb	%al, -285(%rbp)                 # 1-byte Spill
	.loc	2 104 32                        # src/main.c:104:32
	jne	.LBB1_5
# %bb.4:                                #   in Loop: Header=BB1_3 Depth=1
	.loc	2 104 44                        # src/main.c:104:44
	cmpl	$3, g_signal
	setne	%al
	movb	%al, -285(%rbp)                 # 1-byte Spill
.LBB1_5:                                #   in Loop: Header=BB1_3 Depth=1
	.loc	2 0 44                          # src/main.c:0:44
	movb	-285(%rbp), %al                 # 1-byte Reload
	.loc	2 104 2                         # src/main.c:104:2
	testb	$1, %al
	jne	.LBB1_6
	jmp	.LBB1_9
.LBB1_6:                                #   in Loop: Header=BB1_3 Depth=1
.Ltmp10:
	.loc	2 106 25 is_stmt 1              # src/main.c:106:25
	leaq	-280(%rbp), %rdi
	addq	$32, %rdi
	.loc	2 106 3 is_stmt 0               # src/main.c:106:3
	callq	get_prompt
	.loc	2 107 40 is_stmt 1              # src/main.c:107:40
	movq	-248(%rbp), %rdi
	.loc	2 107 21 is_stmt 0              # src/main.c:107:21
	callq	readline
	.loc	2 107 19                        # src/main.c:107:19
	movq	%rax, -264(%rbp)
.Ltmp11:
	.loc	2 108 23 is_stmt 1              # src/main.c:108:23
	cmpq	$0, -264(%rbp)
.Ltmp12:
	.loc	2 108 7 is_stmt 0               # src/main.c:108:7
	jne	.LBB1_8
# %bb.7:
.Ltmp13:
	.loc	2 110 4 is_stmt 1               # src/main.c:110:4
	movl	$1, %edi
	movabsq	$.L.str.1, %rsi
	movl	$5, %edx
	callq	write
	.loc	2 111 4                         # src/main.c:111:4
	jmp	.LBB1_9
.Ltmp14:
.LBB1_8:                                #   in Loop: Header=BB1_3 Depth=1
	.loc	2 113 25                        # src/main.c:113:25
	movq	-264(%rbp), %rdi
	.loc	2 113 3 is_stmt 0               # src/main.c:113:3
	callq	add_history
	.loc	2 114 42 is_stmt 1              # src/main.c:114:42
	movq	-264(%rbp), %rsi
	.loc	2 114 3 is_stmt 0               # src/main.c:114:3
	leaq	-280(%rbp), %rdi
	callq	lexical_analysis
	.loc	2 115 3 is_stmt 1               # src/main.c:115:3
	leaq	-280(%rbp), %rdi
	callq	parsing
	.loc	2 116 3                         # src/main.c:116:3
	leaq	-280(%rbp), %rdi
	callq	execution
	.loc	2 117 3                         # src/main.c:117:3
	leaq	-280(%rbp), %rdi
	callq	clean_input
.Ltmp15:
	.loc	2 104 2                         # src/main.c:104:2
	jmp	.LBB1_3
.LBB1_9:
	.loc	2 119 16                        # src/main.c:119:16
	movzbl	-236(%rbp), %eax
	.loc	2 119 14 is_stmt 0              # src/main.c:119:14
	movl	%eax, -284(%rbp)
	.loc	2 120 2 is_stmt 1               # src/main.c:120:2
	leaq	-280(%rbp), %rdi
	callq	clean_program
	.loc	2 121 10                        # src/main.c:121:10
	movl	-284(%rbp), %eax
	.loc	2 121 2 is_stmt 0               # src/main.c:121:2
	addq	$288, %rsp                      # imm = 0x120
	popq	%rbp
	.cfi_def_cfa %rsp, 8
	retq
.Ltmp16:
.Lfunc_end1:
	.size	main, .Lfunc_end1-main
	.cfi_endproc
                                        # -- End function
	.type	.L.str,@object                  # @.str
	.section	.rodata.str1.1,"aMS",@progbits,1
.L.str:
	.asciz	"\033[1m\033[37mTest usage: ./minishell \"argument\"\n\033[0m"
	.size	.L.str, 49

	.type	.L.str.1,@object                # @.str.1
.L.str.1:
	.asciz	"exit\n"
	.size	.L.str.1, 6

	.file	3 "/usr/include" "dirent.h"
	.file	4 "/usr/include" "signal.h"
	.file	5 "/usr/include/x86_64-linux-gnu/bits" "sigaction.h"
	.file	6 "/usr/include/x86_64-linux-gnu/bits/types" "siginfo_t.h"
	.file	7 "/usr/include/x86_64-linux-gnu/bits" "types.h"
	.file	8 "/usr/include/x86_64-linux-gnu/bits/types" "__sigval_t.h"
	.file	9 "/usr/include/x86_64-linux-gnu/bits/types" "__sigset_t.h"
	.file	10 "/usr/include/x86_64-linux-gnu/bits" "struct_stat.h"
	.file	11 "/usr/include/x86_64-linux-gnu/bits/types" "struct_timespec.h"
	.file	12 "/usr/include/x86_64-linux-gnu/bits" "termios.h"
	.file	13 "/usr/include/x86_64-linux-gnu/bits" "termios-struct.h"
	.section	".note.GNU-stack","",@progbits
	.addrsig
	.addrsig_sym test_mode
	.addrsig_sym lexical_analysis
	.addrsig_sym parsing
	.addrsig_sym execution
	.addrsig_sym clean_program
	.addrsig_sym exit
	.addrsig_sym ft_printf
	.addrsig_sym init_minishell
	.addrsig_sym get_prompt
	.addrsig_sym readline
	.addrsig_sym write
	.addrsig_sym add_history
	.addrsig_sym clean_input
	.addrsig_sym g_signal