	.text
	.file	"boolean_parsing.c"
	.globl	is_expansion_stored_in_env      # -- Begin function is_expansion_stored_in_env
	.p2align	4, 0x90
	.type	is_expansion_stored_in_env,@function
is_expansion_stored_in_env:             # @is_expansion_stored_in_env
.Lfunc_begin0:
	.file	1 "/mnt/nfs/homes/cboukhal/42/minishell" "src/parsing/boolean_parsing.c"
	.loc	1 16 0                          # src/parsing/boolean_parsing.c:16:0
	.cfi_startproc
# %bb.0:
	pushq	%rbp
	.cfi_def_cfa_offset 16
	.cfi_offset %rbp, -16
	movq	%rsp, %rbp
	.cfi_def_cfa_register %rbp
	movq	%rdi, -16(%rbp)
.Ltmp0:
	.loc	1 17 6 prologue_end             # src/parsing/boolean_parsing.c:17:6
	cmpq	$0, -16(%rbp)
.Ltmp1:
	.loc	1 17 6 is_stmt 0                # src/parsing/boolean_parsing.c:17:6
	je	.LBB0_2
# %bb.1:
.Ltmp2:
	.loc	1 18 3 is_stmt 1                # src/parsing/boolean_parsing.c:18:3
	movb	$1, -1(%rbp)
	jmp	.LBB0_3
.Ltmp3:
.LBB0_2:
	.loc	1 19 2                          # src/parsing/boolean_parsing.c:19:2
	movb	$0, -1(%rbp)
.LBB0_3:
	.loc	1 20 1                          # src/parsing/boolean_parsing.c:20:1
	movb	-1(%rbp), %al
	andb	$1, %al
	movzbl	%al, %eax
	popq	%rbp
	.cfi_def_cfa %rsp, 8
	retq
.Ltmp4:
.Lfunc_end0:
	.size	is_expansion_stored_in_env, .Lfunc_end0-is_expansion_stored_in_env
	.cfi_endproc
                                        # -- End function
	.globl	is_exit_status                  # -- Begin function is_exit_status
	.p2align	4, 0x90
	.type	is_exit_status,@function
is_exit_status:                         # @is_exit_status
.Lfunc_begin1:
	.loc	1 23 0                          # src/parsing/boolean_parsing.c:23:0
	.cfi_startproc
# %bb.0:
	pushq	%rbp
	.cfi_def_cfa_offset 16
	.cfi_offset %rbp, -16
	movq	%rsp, %rbp
	.cfi_def_cfa_register %rbp
	subq	$32, %rsp
	movq	%rdi, -16(%rbp)
.Ltmp5:
	.loc	1 26 24 prologue_end            # src/parsing/boolean_parsing.c:26:24
	movq	-16(%rbp), %rsi
	.loc	1 26 8 is_stmt 0                # src/parsing/boolean_parsing.c:26:8
	movabsq	$.L.str, %rdi
	callq	ft_strjoin
	.loc	1 26 6                          # src/parsing/boolean_parsing.c:26:6
	movq	%rax, -24(%rbp)
.Ltmp6:
	.loc	1 27 7 is_stmt 1                # src/parsing/boolean_parsing.c:27:7
	cmpq	$0, -24(%rbp)
.Ltmp7:
	.loc	1 27 6 is_stmt 0                # src/parsing/boolean_parsing.c:27:6
	jne	.LBB1_2
# %bb.1:
.Ltmp8:
	.loc	1 28 3 is_stmt 1                # src/parsing/boolean_parsing.c:28:3
	movb	$0, -1(%rbp)
	jmp	.LBB1_6
.Ltmp9:
.LBB1_2:
	.loc	1 29 16                         # src/parsing/boolean_parsing.c:29:16
	movq	-24(%rbp), %rdi
	.loc	1 29 6 is_stmt 0                # src/parsing/boolean_parsing.c:29:6
	callq	ft_strlen
	.loc	1 29 21                         # src/parsing/boolean_parsing.c:29:21
	cmpq	$2, %rax
	.loc	1 29 26                         # src/parsing/boolean_parsing.c:29:26
	jne	.LBB1_5
# %bb.3:
	.loc	1 29 40                         # src/parsing/boolean_parsing.c:29:40
	movq	-24(%rbp), %rdi
	.loc	1 29 29                         # src/parsing/boolean_parsing.c:29:29
	movabsq	$.L.str.1, %rsi
	movl	$2, %edx
	callq	ft_strncmp
	.loc	1 29 54                         # src/parsing/boolean_parsing.c:29:54
	cmpl	$0, %eax
.Ltmp10:
	.loc	1 29 6                          # src/parsing/boolean_parsing.c:29:6
	jne	.LBB1_5
# %bb.4:
.Ltmp11:
	.loc	1 30 16 is_stmt 1               # src/parsing/boolean_parsing.c:30:16
	movq	-24(%rbp), %rdi
	.loc	1 30 11 is_stmt 0               # src/parsing/boolean_parsing.c:30:11
	callq	free
	.loc	1 30 3                          # src/parsing/boolean_parsing.c:30:3
	movb	$1, -1(%rbp)
	jmp	.LBB1_6
.Ltmp12:
.LBB1_5:
	.loc	1 31 15 is_stmt 1               # src/parsing/boolean_parsing.c:31:15
	movq	-24(%rbp), %rdi
	.loc	1 31 10 is_stmt 0               # src/parsing/boolean_parsing.c:31:10
	callq	free
	.loc	1 31 2                          # src/parsing/boolean_parsing.c:31:2
	movb	$0, -1(%rbp)
.LBB1_6:
	.loc	1 32 1 is_stmt 1                # src/parsing/boolean_parsing.c:32:1
	movb	-1(%rbp), %al
	andb	$1, %al
	movzbl	%al, %eax
	addq	$32, %rsp
	popq	%rbp
	.cfi_def_cfa %rsp, 8
	retq
.Ltmp13:
.Lfunc_end1:
	.size	is_exit_status, .Lfunc_end1-is_exit_status
	.cfi_endproc
                                        # -- End function
	.type	.L.str,@object                  # @.str
	.section	.rodata.str1.1,"aMS",@progbits,1
.L.str:
	.asciz	"$"
	.size	.L.str, 2

	.type	.L.str.1,@object                # @.str.1
.L.str.1:
	.asciz	"$?"
	.size	.L.str.1, 3

	.section	".note.GNU-stack","",@progbits
	.addrsig
	.addrsig_sym ft_strjoin
	.addrsig_sym ft_strlen
	.addrsig_sym ft_strncmp
	.addrsig_sym free