	.text
	.file	"command_redir_utils.c"
	.file	1 "/mnt/nfs/homes/jbocktor/student/group_minishell/more_hope/minigroups" "src/parsing/../../include/minishell.h"
	.globl	get_redir_filename_length       # -- Begin function get_redir_filename_length
	.p2align	4, 0x90
	.type	get_redir_filename_length,@function
get_redir_filename_length:              # @get_redir_filename_length
.Lfunc_begin0:
	.file	2 "/mnt/nfs/homes/jbocktor/student/group_minishell/more_hope/minigroups" "src/parsing/command_redir_utils.c"
	.loc	2 16 0                          # src/parsing/command_redir_utils.c:16:0
	.cfi_startproc
# %bb.0:
	pushq	%rbp
	.cfi_def_cfa_offset 16
	.cfi_offset %rbp, -16
	movq	%rsp, %rbp
	.cfi_def_cfa_register %rbp
	subq	$48, %rsp
	movq	%rdi, -8(%rbp)
	movl	%esi, -12(%rbp)
	movq	%rdx, -24(%rbp)
.Ltmp0:
	.loc	2 20 11 prologue_end            # src/parsing/command_redir_utils.c:20:11
	cmpl	$9, -12(%rbp)
	.loc	2 20 22 is_stmt 0               # src/parsing/command_redir_utils.c:20:22
	je	.LBB0_2
# %bb.1:
	.loc	2 20 30                         # src/parsing/command_redir_utils.c:20:30
	cmpl	$11, -12(%rbp)
.Ltmp1:
	.loc	2 20 6                          # src/parsing/command_redir_utils.c:20:6
	jne	.LBB0_3
.LBB0_2:
.Ltmp2:
	.loc	2 21 5 is_stmt 1                # src/parsing/command_redir_utils.c:21:5
	movl	$2, -32(%rbp)
	.loc	2 21 3 is_stmt 0                # src/parsing/command_redir_utils.c:21:3
	jmp	.LBB0_4
.LBB0_3:
	.loc	2 23 5 is_stmt 1                # src/parsing/command_redir_utils.c:23:5
	movl	$1, -32(%rbp)
.Ltmp3:
.LBB0_4:
	.loc	2 24 2                          # src/parsing/command_redir_utils.c:24:2
	jmp	.LBB0_5
.LBB0_5:                                # =>This Inner Loop Header: Depth=1
	.loc	2 24 9 is_stmt 0                # src/parsing/command_redir_utils.c:24:9
	movq	-8(%rbp), %rax
	movslq	-32(%rbp), %rcx
	movsbl	(%rax,%rcx), %ecx
	xorl	%eax, %eax
                                        # kill: def $al killed $al killed $eax
	cmpl	$0, %ecx
	movb	%al, -33(%rbp)                  # 1-byte Spill
	.loc	2 24 19                         # src/parsing/command_redir_utils.c:24:19
	je	.LBB0_7
# %bb.6:                                #   in Loop: Header=BB0_5 Depth=1
	.loc	2 24 31                         # src/parsing/command_redir_utils.c:24:31
	movq	-8(%rbp), %rax
	movslq	-32(%rbp), %rcx
	.loc	2 24 22                         # src/parsing/command_redir_utils.c:24:22
	movsbl	(%rax,%rcx), %edi
	callq	is_blank
	andb	$1, %al
	movzbl	%al, %eax
	.loc	2 24 42                         # src/parsing/command_redir_utils.c:24:42
	cmpl	$1, %eax
	sete	%al
	movb	%al, -33(%rbp)                  # 1-byte Spill
.LBB0_7:                                #   in Loop: Header=BB0_5 Depth=1
	.loc	2 0 42                          # src/parsing/command_redir_utils.c:0:42
	movb	-33(%rbp), %al                  # 1-byte Reload
	.loc	2 24 2                          # src/parsing/command_redir_utils.c:24:2
	testb	$1, %al
	jne	.LBB0_8
	jmp	.LBB0_9
.LBB0_8:                                #   in Loop: Header=BB0_5 Depth=1
	.loc	2 25 4 is_stmt 1                # src/parsing/command_redir_utils.c:25:4
	movl	-32(%rbp), %eax
	addl	$1, %eax
	movl	%eax, -32(%rbp)
	.loc	2 24 2                          # src/parsing/command_redir_utils.c:24:2
	jmp	.LBB0_5
.LBB0_9:
	.loc	2 26 11                         # src/parsing/command_redir_utils.c:26:11
	movl	-32(%rbp), %ecx
	.loc	2 26 3 is_stmt 0                # src/parsing/command_redir_utils.c:26:3
	movq	-24(%rbp), %rax
	.loc	2 26 9                          # src/parsing/command_redir_utils.c:26:9
	movl	%ecx, (%rax)
	.loc	2 27 9 is_stmt 1                # src/parsing/command_redir_utils.c:27:9
	movl	$0, -28(%rbp)
.LBB0_10:                               # =>This Inner Loop Header: Depth=1
	.loc	2 28 9                          # src/parsing/command_redir_utils.c:28:9
	movq	-8(%rbp), %rax
	movslq	-32(%rbp), %rcx
	.loc	2 28 2 is_stmt 0                # src/parsing/command_redir_utils.c:28:2
	cmpb	$0, (%rax,%rcx)
	je	.LBB0_12
# %bb.11:                               #   in Loop: Header=BB0_10 Depth=1
.Ltmp4:
	.loc	2 30 4 is_stmt 1                # src/parsing/command_redir_utils.c:30:4
	movl	-32(%rbp), %eax
	addl	$1, %eax
	movl	%eax, -32(%rbp)
	.loc	2 31 9                          # src/parsing/command_redir_utils.c:31:9
	movl	-28(%rbp), %eax
	addl	$1, %eax
	movl	%eax, -28(%rbp)
.Ltmp5:
	.loc	2 28 2                          # src/parsing/command_redir_utils.c:28:2
	jmp	.LBB0_10
.LBB0_12:
	.loc	2 33 10                         # src/parsing/command_redir_utils.c:33:10
	movl	-28(%rbp), %eax
	.loc	2 33 2 is_stmt 0                # src/parsing/command_redir_utils.c:33:2
	addq	$48, %rsp
	popq	%rbp
	.cfi_def_cfa %rsp, 8
	retq
.Ltmp6:
.Lfunc_end0:
	.size	get_redir_filename_length, .Lfunc_end0-get_redir_filename_length
	.cfi_endproc
                                        # -- End function
	.globl	get_redir_filename              # -- Begin function get_redir_filename
	.p2align	4, 0x90
	.type	get_redir_filename,@function
get_redir_filename:                     # @get_redir_filename
.Lfunc_begin1:
	.loc	2 37 0 is_stmt 1                # src/parsing/command_redir_utils.c:37:0
	.cfi_startproc
# %bb.0:
	pushq	%rbp
	.cfi_def_cfa_offset 16
	.cfi_offset %rbp, -16
	movq	%rsp, %rbp
	.cfi_def_cfa_register %rbp
	subq	$32, %rsp
	movq	%rdi, -8(%rbp)
	movl	%esi, -12(%rbp)
.Ltmp7:
	.loc	2 43 4 prologue_end             # src/parsing/command_redir_utils.c:43:4
	movl	$0, -16(%rbp)
	.loc	2 44 4                          # src/parsing/command_redir_utils.c:44:4
	movl	$0, -20(%rbp)
	.loc	2 45 37                         # src/parsing/command_redir_utils.c:45:37
	movq	-8(%rbp), %rdi
	.loc	2 45 45 is_stmt 0               # src/parsing/command_redir_utils.c:45:45
	movl	-12(%rbp), %esi
	.loc	2 45 11                         # src/parsing/command_redir_utils.c:45:11
	leaq	-16(%rbp), %rdx
	callq	get_redir_filename_length
	.loc	2 45 9                          # src/parsing/command_redir_utils.c:45:9
	movl	%eax, -24(%rbp)
	.loc	2 46 20 is_stmt 1               # src/parsing/command_redir_utils.c:46:20
	movl	-24(%rbp), %eax
	.loc	2 46 27 is_stmt 0               # src/parsing/command_redir_utils.c:46:27
	addl	$1, %eax
	.loc	2 46 20                         # src/parsing/command_redir_utils.c:46:20
	movslq	%eax, %rdi
	.loc	2 46 13                         # src/parsing/command_redir_utils.c:46:13
	callq	malloc
	.loc	2 46 11                         # src/parsing/command_redir_utils.c:46:11
	movq	%rax, -32(%rbp)
.LBB1_1:                                # =>This Inner Loop Header: Depth=1
	.loc	2 47 9 is_stmt 1                # src/parsing/command_redir_utils.c:47:9
	movl	-20(%rbp), %eax
	.loc	2 47 11 is_stmt 0               # src/parsing/command_redir_utils.c:47:11
	cmpl	-24(%rbp), %eax
	.loc	2 47 2                          # src/parsing/command_redir_utils.c:47:2
	jge	.LBB1_3
# %bb.2:                                #   in Loop: Header=BB1_1 Depth=1
.Ltmp8:
	.loc	2 49 17 is_stmt 1               # src/parsing/command_redir_utils.c:49:17
	movq	-8(%rbp), %rax
	movslq	-16(%rbp), %rcx
	movb	(%rax,%rcx), %dl
	.loc	2 49 3 is_stmt 0                # src/parsing/command_redir_utils.c:49:3
	movq	-32(%rbp), %rax
	movslq	-20(%rbp), %rcx
	.loc	2 49 15                         # src/parsing/command_redir_utils.c:49:15
	movb	%dl, (%rax,%rcx)
	.loc	2 50 4 is_stmt 1                # src/parsing/command_redir_utils.c:50:4
	movl	-16(%rbp), %eax
	addl	$1, %eax
	movl	%eax, -16(%rbp)
	.loc	2 51 4                          # src/parsing/command_redir_utils.c:51:4
	movl	-20(%rbp), %eax
	addl	$1, %eax
	movl	%eax, -20(%rbp)
.Ltmp9:
	.loc	2 47 2                          # src/parsing/command_redir_utils.c:47:2
	jmp	.LBB1_1
.LBB1_3:
	.loc	2 53 2                          # src/parsing/command_redir_utils.c:53:2
	movq	-32(%rbp), %rax
	movslq	-20(%rbp), %rcx
	.loc	2 53 14 is_stmt 0               # src/parsing/command_redir_utils.c:53:14
	movb	$0, (%rax,%rcx)
	.loc	2 54 10 is_stmt 1               # src/parsing/command_redir_utils.c:54:10
	movq	-32(%rbp), %rax
	.loc	2 54 2 is_stmt 0                # src/parsing/command_redir_utils.c:54:2
	addq	$32, %rsp
	popq	%rbp
	.cfi_def_cfa %rsp, 8
	retq
.Ltmp10:
.Lfunc_end1:
	.size	get_redir_filename, .Lfunc_end1-get_redir_filename
	.cfi_endproc
                                        # -- End function
	.section	".note.GNU-stack","",@progbits
	.addrsig
	.addrsig_sym get_redir_filename_length
	.addrsig_sym is_blank
	.addrsig_sym malloc