	.text
	.file	"command_redir_extract.c"
	.file	1 "/mnt/nfs/homes/jbocktor/student/group_minishell/minigroup" "src/parsing/../../include/minishell.h"
	.globl	get_redir_heredoc               # -- Begin function get_redir_heredoc
	.p2align	4, 0x90
	.type	get_redir_heredoc,@function
get_redir_heredoc:                      # @get_redir_heredoc
.Lfunc_begin0:
	.file	2 "/mnt/nfs/homes/jbocktor/student/group_minishell/minigroup" "src/parsing/command_redir_extract.c"
	.loc	2 16 0                          # src/parsing/command_redir_extract.c:16:0
	.cfi_startproc
# %bb.0:
	pushq	%rbp
	.cfi_def_cfa_offset 16
	.cfi_offset %rbp, -16
	movq	%rsp, %rbp
	.cfi_def_cfa_register %rbp
	subq	$64, %rsp
	movq	%rdi, -8(%rbp)
.Ltmp0:
	.loc	2 20 7 prologue_end             # src/parsing/command_redir_extract.c:20:7
	movabsq	$.L.str, %rdi
	movl	$577, %esi                      # imm = 0x241
	movl	$384, %edx                      # imm = 0x180
	movb	$0, %al
	callq	open
	.loc	2 20 5 is_stmt 0                # src/parsing/command_redir_extract.c:20:5
	movl	%eax, -12(%rbp)
.LBB0_1:                                # =>This Inner Loop Header: Depth=1
.Ltmp1:
	.loc	2 24 3 is_stmt 1                # src/parsing/command_redir_extract.c:24:3
	movl	$1, %edi
	movabsq	$.L.str.1, %rsi
	movl	$2, %edx
	callq	write
	.loc	2 25 12                         # src/parsing/command_redir_extract.c:25:12
	movl	$1, %edi
	callq	get_next_line
	.loc	2 25 10 is_stmt 0               # src/parsing/command_redir_extract.c:25:10
	movq	%rax, -24(%rbp)
.Ltmp2:
	.loc	2 26 8 is_stmt 1                # src/parsing/command_redir_extract.c:26:8
	cmpq	$0, -24(%rbp)
	.loc	2 27 4                          # src/parsing/command_redir_extract.c:27:4
	je	.LBB0_3
# %bb.2:                                #   in Loop: Header=BB0_1 Depth=1
	.loc	2 27 18 is_stmt 0               # src/parsing/command_redir_extract.c:27:18
	movq	-24(%rbp), %rax
	movq	%rax, -40(%rbp)                 # 8-byte Spill
	.loc	2 27 26                         # src/parsing/command_redir_extract.c:27:26
	movq	-8(%rbp), %rax
	movq	%rax, -32(%rbp)                 # 8-byte Spill
	.loc	2 27 47                         # src/parsing/command_redir_extract.c:27:47
	movq	-8(%rbp), %rdi
	.loc	2 27 37                         # src/parsing/command_redir_extract.c:27:37
	callq	ft_strlen
	movq	-40(%rbp), %rdi                 # 8-byte Reload
	movq	-32(%rbp), %rsi                 # 8-byte Reload
	movq	%rax, %rdx
	.loc	2 27 7                          # src/parsing/command_redir_extract.c:27:7
	callq	ft_strncmp
	.loc	2 27 59                         # src/parsing/command_redir_extract.c:27:59
	cmpl	$0, %eax
.Ltmp3:
	.loc	2 26 7 is_stmt 1                # src/parsing/command_redir_extract.c:26:7
	jne	.LBB0_4
.LBB0_3:
.Ltmp4:
	.loc	2 28 4                          # src/parsing/command_redir_extract.c:28:4
	jmp	.LBB0_5
.Ltmp5:
.LBB0_4:                                #   in Loop: Header=BB0_1 Depth=1
	.loc	2 29 9                          # src/parsing/command_redir_extract.c:29:9
	movl	-12(%rbp), %eax
	movl	%eax, -52(%rbp)                 # 4-byte Spill
	.loc	2 29 13 is_stmt 0               # src/parsing/command_redir_extract.c:29:13
	movq	-24(%rbp), %rax
	movq	%rax, -48(%rbp)                 # 8-byte Spill
	.loc	2 29 31                         # src/parsing/command_redir_extract.c:29:31
	movq	-24(%rbp), %rdi
	.loc	2 29 21                         # src/parsing/command_redir_extract.c:29:21
	callq	ft_strlen
	movl	-52(%rbp), %edi                 # 4-byte Reload
	movq	-48(%rbp), %rsi                 # 8-byte Reload
	movq	%rax, %rdx
	.loc	2 29 3                          # src/parsing/command_redir_extract.c:29:3
	callq	write
	.loc	2 30 8 is_stmt 1                # src/parsing/command_redir_extract.c:30:8
	movq	-24(%rbp), %rdi
	.loc	2 30 3 is_stmt 0                # src/parsing/command_redir_extract.c:30:3
	callq	free
.Ltmp6:
	.loc	2 22 2 is_stmt 1                # src/parsing/command_redir_extract.c:22:2
	jmp	.LBB0_1
.LBB0_5:
	.loc	2 32 7                          # src/parsing/command_redir_extract.c:32:7
	movq	-24(%rbp), %rdi
	.loc	2 32 2 is_stmt 0                # src/parsing/command_redir_extract.c:32:2
	callq	free
	.loc	2 33 8 is_stmt 1                # src/parsing/command_redir_extract.c:33:8
	movl	-12(%rbp), %edi
	.loc	2 33 2 is_stmt 0                # src/parsing/command_redir_extract.c:33:2
	callq	close
	.loc	2 34 1 is_stmt 1                # src/parsing/command_redir_extract.c:34:1
	addq	$64, %rsp
	popq	%rbp
	.cfi_def_cfa %rsp, 8
	retq
.Ltmp7:
.Lfunc_end0:
	.size	get_redir_heredoc, .Lfunc_end0-get_redir_heredoc
	.cfi_endproc
                                        # -- End function
	.globl	is_file_accessible              # -- Begin function is_file_accessible
	.p2align	4, 0x90
	.type	is_file_accessible,@function
is_file_accessible:                     # @is_file_accessible
.Lfunc_begin1:
	.loc	2 37 0                          # src/parsing/command_redir_extract.c:37:0
	.cfi_startproc
# %bb.0:
	pushq	%rbp
	.cfi_def_cfa_offset 16
	.cfi_offset %rbp, -16
	movq	%rsp, %rbp
	.cfi_def_cfa_register %rbp
	subq	$32, %rsp
	movq	%rdi, -16(%rbp)
	movq	%rsi, -24(%rbp)
.Ltmp8:
	.loc	2 38 6 prologue_end             # src/parsing/command_redir_extract.c:38:6
	cmpq	$0, -24(%rbp)
	.loc	2 38 15 is_stmt 0               # src/parsing/command_redir_extract.c:38:15
	je	.LBB1_5
# %bb.1:
	.loc	2 38 28                         # src/parsing/command_redir_extract.c:38:28
	movq	-24(%rbp), %rdi
	.loc	2 38 18                         # src/parsing/command_redir_extract.c:38:18
	callq	ft_strlen
	.loc	2 38 38                         # src/parsing/command_redir_extract.c:38:38
	cmpq	$0, %rax
.Ltmp9:
	.loc	2 38 6                          # src/parsing/command_redir_extract.c:38:6
	jbe	.LBB1_5
# %bb.2:
.Ltmp10:
	.loc	2 40 14 is_stmt 1               # src/parsing/command_redir_extract.c:40:14
	movq	-24(%rbp), %rdi
	.loc	2 40 7 is_stmt 0                # src/parsing/command_redir_extract.c:40:7
	xorl	%esi, %esi
	callq	access
	.loc	2 40 30                         # src/parsing/command_redir_extract.c:40:30
	cmpl	$0, %eax
.Ltmp11:
	.loc	2 40 7                          # src/parsing/command_redir_extract.c:40:7
	jne	.LBB1_4
# %bb.3:
.Ltmp12:
	.loc	2 41 4 is_stmt 1                # src/parsing/command_redir_extract.c:41:4
	movb	$1, -1(%rbp)
	jmp	.LBB1_6
.Ltmp13:
.LBB1_4:
	.loc	2 42 31                         # src/parsing/command_redir_extract.c:42:31
	movq	-24(%rbp), %rax
	movq	%rax, -32(%rbp)                 # 8-byte Spill
	.loc	2 42 50 is_stmt 0               # src/parsing/command_redir_extract.c:42:50
	callq	__errno_location
	movl	(%rax), %edi
	.loc	2 42 41                         # src/parsing/command_redir_extract.c:42:41
	callq	strerror
	movq	-32(%rbp), %rsi                 # 8-byte Reload
	movq	%rax, %rdx
	.loc	2 42 3                          # src/parsing/command_redir_extract.c:42:3
	movabsq	$.L.str.2, %rdi
	movb	$0, %al
	callq	ft_printf
	.loc	2 43 3 is_stmt 1                # src/parsing/command_redir_extract.c:43:3
	movq	-16(%rbp), %rax
	.loc	2 43 26 is_stmt 0               # src/parsing/command_redir_extract.c:43:26
	movl	$1, 44(%rax)
.Ltmp14:
.LBB1_5:
	.loc	2 45 2 is_stmt 1                # src/parsing/command_redir_extract.c:45:2
	movb	$0, -1(%rbp)
.LBB1_6:
	.loc	2 46 1                          # src/parsing/command_redir_extract.c:46:1
	movb	-1(%rbp), %al
	andb	$1, %al
	movzbl	%al, %eax
	addq	$32, %rsp
	popq	%rbp
	.cfi_def_cfa %rsp, 8
	retq
.Ltmp15:
.Lfunc_end1:
	.size	is_file_accessible, .Lfunc_end1-is_file_accessible
	.cfi_endproc
                                        # -- End function
	.globl	process_redirection             # -- Begin function process_redirection
	.p2align	4, 0x90
	.type	process_redirection,@function
process_redirection:                    # @process_redirection
.Lfunc_begin2:
	.loc	2 87 0                          # src/parsing/command_redir_extract.c:87:0
	.cfi_startproc
# %bb.0:
	pushq	%rbp
	.cfi_def_cfa_offset 16
	.cfi_offset %rbp, -16
	movq	%rsp, %rbp
	.cfi_def_cfa_register %rbp
	subq	$16, %rsp
	movq	%rdi, -8(%rbp)
.Ltmp16:
	.loc	2 88 6 prologue_end             # src/parsing/command_redir_extract.c:88:6
	movq	-8(%rbp), %rax
	.loc	2 88 16 is_stmt 0               # src/parsing/command_redir_extract.c:88:16
	cmpl	$9, 4(%rax)
	.loc	2 88 27                         # src/parsing/command_redir_extract.c:88:27
	jne	.LBB2_3
# %bb.1:
	.loc	2 88 40                         # src/parsing/command_redir_extract.c:88:40
	movq	-8(%rbp), %rax
	.loc	2 88 45                         # src/parsing/command_redir_extract.c:88:45
	movq	8(%rax), %rdi
	.loc	2 88 30                         # src/parsing/command_redir_extract.c:88:30
	callq	ft_strlen
	.loc	2 88 51                         # src/parsing/command_redir_extract.c:88:51
	cmpq	$0, %rax
.Ltmp17:
	.loc	2 88 6                          # src/parsing/command_redir_extract.c:88:6
	jbe	.LBB2_3
# %bb.2:
.Ltmp18:
	.loc	2 89 21 is_stmt 1               # src/parsing/command_redir_extract.c:89:21
	movq	-8(%rbp), %rax
	.loc	2 89 26 is_stmt 0               # src/parsing/command_redir_extract.c:89:26
	movq	8(%rax), %rdi
	.loc	2 89 3                          # src/parsing/command_redir_extract.c:89:3
	callq	get_redir_heredoc
.Ltmp19:
.LBB2_3:
	.loc	2 90 1 is_stmt 1                # src/parsing/command_redir_extract.c:90:1
	addq	$16, %rsp
	popq	%rbp
	.cfi_def_cfa %rsp, 8
	retq
.Ltmp20:
.Lfunc_end2:
	.size	process_redirection, .Lfunc_end2-process_redirection
	.cfi_endproc
                                        # -- End function
	.globl	manage_infile_list              # -- Begin function manage_infile_list
	.p2align	4, 0x90
	.type	manage_infile_list,@function
manage_infile_list:                     # @manage_infile_list
.Lfunc_begin3:
	.loc	2 93 0                          # src/parsing/command_redir_extract.c:93:0
	.cfi_startproc
# %bb.0:
	pushq	%rbp
	.cfi_def_cfa_offset 16
	.cfi_offset %rbp, -16
	movq	%rsp, %rbp
	.cfi_def_cfa_register %rbp
	movq	%rdi, -8(%rbp)
	movq	%rsi, -16(%rbp)
.Ltmp21:
	.loc	2 96 11 prologue_end            # src/parsing/command_redir_extract.c:96:11
	movq	-8(%rbp), %rax
	.loc	2 96 10 is_stmt 0               # src/parsing/command_redir_extract.c:96:10
	movq	(%rax), %rax
	.loc	2 96 8                          # src/parsing/command_redir_extract.c:96:8
	movq	%rax, -24(%rbp)
.Ltmp22:
	.loc	2 97 6 is_stmt 1                # src/parsing/command_redir_extract.c:97:6
	cmpq	$0, -24(%rbp)
.Ltmp23:
	.loc	2 97 6 is_stmt 0                # src/parsing/command_redir_extract.c:97:6
	je	.LBB3_5
# %bb.1:
.Ltmp24:
	.loc	2 99 3 is_stmt 1                # src/parsing/command_redir_extract.c:99:3
	jmp	.LBB3_2
.LBB3_2:                                # =>This Inner Loop Header: Depth=1
	.loc	2 99 10 is_stmt 0               # src/parsing/command_redir_extract.c:99:10
	movq	-24(%rbp), %rax
	.loc	2 99 3                          # src/parsing/command_redir_extract.c:99:3
	cmpq	$0, 16(%rax)
	je	.LBB3_4
# %bb.3:                                #   in Loop: Header=BB3_2 Depth=1
	.loc	2 100 12 is_stmt 1              # src/parsing/command_redir_extract.c:100:12
	movq	-24(%rbp), %rax
	.loc	2 100 19 is_stmt 0              # src/parsing/command_redir_extract.c:100:19
	movq	16(%rax), %rax
	.loc	2 100 10                        # src/parsing/command_redir_extract.c:100:10
	movq	%rax, -24(%rbp)
	.loc	2 99 3 is_stmt 1                # src/parsing/command_redir_extract.c:99:3
	jmp	.LBB3_2
.LBB3_4:
	.loc	2 101 17                        # src/parsing/command_redir_extract.c:101:17
	movq	-16(%rbp), %rcx
	.loc	2 101 3 is_stmt 0               # src/parsing/command_redir_extract.c:101:3
	movq	-24(%rbp), %rax
	.loc	2 101 15                        # src/parsing/command_redir_extract.c:101:15
	movq	%rcx, 16(%rax)
	.loc	2 102 2 is_stmt 1               # src/parsing/command_redir_extract.c:102:2
	jmp	.LBB3_6
.Ltmp25:
.LBB3_5:
	.loc	2 104 13                        # src/parsing/command_redir_extract.c:104:13
	movq	-16(%rbp), %rcx
	.loc	2 104 4 is_stmt 0               # src/parsing/command_redir_extract.c:104:4
	movq	-8(%rbp), %rax
	.loc	2 104 11                        # src/parsing/command_redir_extract.c:104:11
	movq	%rcx, (%rax)
.Ltmp26:
.LBB3_6:
	.loc	2 105 1 is_stmt 1               # src/parsing/command_redir_extract.c:105:1
	popq	%rbp
	.cfi_def_cfa %rsp, 8
	retq
.Ltmp27:
.Lfunc_end3:
	.size	manage_infile_list, .Lfunc_end3-manage_infile_list
	.cfi_endproc
                                        # -- End function
	.globl	add_infile_to_list              # -- Begin function add_infile_to_list
	.p2align	4, 0x90
	.type	add_infile_to_list,@function
add_infile_to_list:                     # @add_infile_to_list
.Lfunc_begin4:
	.loc	2 108 0                         # src/parsing/command_redir_extract.c:108:0
	.cfi_startproc
# %bb.0:
	pushq	%rbp
	.cfi_def_cfa_offset 16
	.cfi_offset %rbp, -16
	movq	%rsp, %rbp
	.cfi_def_cfa_register %rbp
	movq	%rdi, -8(%rbp)
	movq	%rsi, -16(%rbp)
.Ltmp28:
	.loc	2 111 8 prologue_end            # src/parsing/command_redir_extract.c:111:8
	movq	-8(%rbp), %rax
	.loc	2 111 6 is_stmt 0               # src/parsing/command_redir_extract.c:111:6
	cmpq	$0, (%rax)
.Ltmp29:
	.loc	2 111 6                         # src/parsing/command_redir_extract.c:111:6
	je	.LBB4_7
# %bb.1:
.Ltmp30:
	.loc	2 113 13 is_stmt 1              # src/parsing/command_redir_extract.c:113:13
	movq	-8(%rbp), %rax
	.loc	2 113 12 is_stmt 0              # src/parsing/command_redir_extract.c:113:12
	movq	(%rax), %rax
	.loc	2 113 9                         # src/parsing/command_redir_extract.c:113:9
	movq	%rax, -24(%rbp)
.LBB4_2:                                # =>This Inner Loop Header: Depth=1
	.loc	2 114 3 is_stmt 1               # src/parsing/command_redir_extract.c:114:3
	cmpq	$0, -24(%rbp)
	je	.LBB4_6
# %bb.3:                                #   in Loop: Header=BB4_2 Depth=1
.Ltmp31:
	.loc	2 116 8                         # src/parsing/command_redir_extract.c:116:8
	movq	-24(%rbp), %rax
	.loc	2 116 20 is_stmt 0              # src/parsing/command_redir_extract.c:116:20
	cmpq	$0, 16(%rax)
.Ltmp32:
	.loc	2 116 8                         # src/parsing/command_redir_extract.c:116:8
	jne	.LBB4_5
# %bb.4:
.Ltmp33:
	.loc	2 117 5 is_stmt 1               # src/parsing/command_redir_extract.c:117:5
	jmp	.LBB4_6
.Ltmp34:
.LBB4_5:                                #   in Loop: Header=BB4_2 Depth=1
	.loc	2 118 12                        # src/parsing/command_redir_extract.c:118:12
	movq	-24(%rbp), %rax
	.loc	2 118 19 is_stmt 0              # src/parsing/command_redir_extract.c:118:19
	movq	16(%rax), %rax
	.loc	2 118 10                        # src/parsing/command_redir_extract.c:118:10
	movq	%rax, -24(%rbp)
.Ltmp35:
	.loc	2 114 3 is_stmt 1               # src/parsing/command_redir_extract.c:114:3
	jmp	.LBB4_2
.LBB4_6:
	.loc	2 120 19                        # src/parsing/command_redir_extract.c:120:19
	movq	-16(%rbp), %rax
	.loc	2 120 18 is_stmt 0              # src/parsing/command_redir_extract.c:120:18
	movq	(%rax), %rcx
	.loc	2 120 3                         # src/parsing/command_redir_extract.c:120:3
	movq	-24(%rbp), %rax
	.loc	2 120 15                        # src/parsing/command_redir_extract.c:120:15
	movq	%rcx, 16(%rax)
	.loc	2 121 2 is_stmt 1               # src/parsing/command_redir_extract.c:121:2
	jmp	.LBB4_8
.Ltmp36:
.LBB4_7:
	.loc	2 123 17                        # src/parsing/command_redir_extract.c:123:17
	movq	-16(%rbp), %rax
	.loc	2 123 16 is_stmt 0              # src/parsing/command_redir_extract.c:123:16
	movq	(%rax), %rcx
	.loc	2 123 5                         # src/parsing/command_redir_extract.c:123:5
	movq	-8(%rbp), %rax
	.loc	2 123 13                        # src/parsing/command_redir_extract.c:123:13
	movq	%rcx, (%rax)
.Ltmp37:
.LBB4_8:
	.loc	2 124 1 is_stmt 1               # src/parsing/command_redir_extract.c:124:1
	popq	%rbp
	.cfi_def_cfa %rsp, 8
	retq
.Ltmp38:
.Lfunc_end4:
	.size	add_infile_to_list, .Lfunc_end4-add_infile_to_list
	.cfi_endproc
                                        # -- End function
	.globl	handle_infile_token             # -- Begin function handle_infile_token
	.p2align	4, 0x90
	.type	handle_infile_token,@function
handle_infile_token:                    # @handle_infile_token
.Lfunc_begin5:
	.loc	2 128 0                         # src/parsing/command_redir_extract.c:128:0
	.cfi_startproc
# %bb.0:
	pushq	%rbp
	.cfi_def_cfa_offset 16
	.cfi_offset %rbp, -16
	movq	%rsp, %rbp
	.cfi_def_cfa_register %rbp
	subq	$32, %rsp
	movq	%rdi, -8(%rbp)
	movq	%rsi, -16(%rbp)
	movq	%rdx, -24(%rbp)
.Ltmp39:
	.loc	2 129 6 prologue_end            # src/parsing/command_redir_extract.c:129:6
	movq	-16(%rbp), %rax
	.loc	2 129 16 is_stmt 0              # src/parsing/command_redir_extract.c:129:16
	cmpl	$9, 4(%rax)
	.loc	2 129 27                        # src/parsing/command_redir_extract.c:129:27
	jne	.LBB5_3
# %bb.1:
	.loc	2 129 40                        # src/parsing/command_redir_extract.c:129:40
	movq	-16(%rbp), %rax
	.loc	2 129 45                        # src/parsing/command_redir_extract.c:129:45
	movq	8(%rax), %rdi
	.loc	2 129 30                        # src/parsing/command_redir_extract.c:129:30
	callq	ft_strlen
	.loc	2 129 51                        # src/parsing/command_redir_extract.c:129:51
	cmpq	$0, %rax
.Ltmp40:
	.loc	2 129 6                         # src/parsing/command_redir_extract.c:129:6
	jbe	.LBB5_3
# %bb.2:
.Ltmp41:
	.loc	2 131 21 is_stmt 1              # src/parsing/command_redir_extract.c:131:21
	movq	-16(%rbp), %rax
	.loc	2 131 26 is_stmt 0              # src/parsing/command_redir_extract.c:131:26
	movq	8(%rax), %rdi
	.loc	2 131 3                         # src/parsing/command_redir_extract.c:131:3
	callq	get_redir_heredoc
	.loc	2 132 22 is_stmt 1              # src/parsing/command_redir_extract.c:132:22
	movq	-24(%rbp), %rdi
	.loc	2 132 3 is_stmt 0               # src/parsing/command_redir_extract.c:132:3
	leaq	-16(%rbp), %rsi
	callq	add_infile_to_list
	.loc	2 133 2 is_stmt 1               # src/parsing/command_redir_extract.c:133:2
	jmp	.LBB5_8
.Ltmp42:
.LBB5_3:
	.loc	2 134 11                        # src/parsing/command_redir_extract.c:134:11
	movq	-16(%rbp), %rax
	cmpq	$0, 8(%rax)
	.loc	2 134 21 is_stmt 0              # src/parsing/command_redir_extract.c:134:21
	je	.LBB5_6
# %bb.4:
	.loc	2 134 43                        # src/parsing/command_redir_extract.c:134:43
	movq	-8(%rbp), %rdi
	.loc	2 134 54                        # src/parsing/command_redir_extract.c:134:54
	movq	-16(%rbp), %rax
	.loc	2 134 59                        # src/parsing/command_redir_extract.c:134:59
	movq	8(%rax), %rsi
	.loc	2 134 24                        # src/parsing/command_redir_extract.c:134:24
	callq	is_file_accessible
.Ltmp43:
	.loc	2 134 11                        # src/parsing/command_redir_extract.c:134:11
	testb	$1, %al
	jne	.LBB5_5
	jmp	.LBB5_6
.LBB5_5:
.Ltmp44:
	.loc	2 136 22 is_stmt 1              # src/parsing/command_redir_extract.c:136:22
	movq	-24(%rbp), %rdi
	.loc	2 136 3 is_stmt 0               # src/parsing/command_redir_extract.c:136:3
	leaq	-16(%rbp), %rsi
	callq	add_infile_to_list
	.loc	2 137 3 is_stmt 1               # src/parsing/command_redir_extract.c:137:3
	jmp	.LBB5_8
.Ltmp45:
.LBB5_6:
	.loc	2 141 8                         # src/parsing/command_redir_extract.c:141:8
	movq	-16(%rbp), %rax
	.loc	2 141 13 is_stmt 0              # src/parsing/command_redir_extract.c:141:13
	movq	8(%rax), %rdi
	.loc	2 141 3                         # src/parsing/command_redir_extract.c:141:3
	callq	free
	.loc	2 142 8 is_stmt 1               # src/parsing/command_redir_extract.c:142:8
	movq	-16(%rbp), %rdi
	.loc	2 142 3 is_stmt 0               # src/parsing/command_redir_extract.c:142:3
	callq	free
.Ltmp46:
# %bb.7:
	.loc	2 0 3                           # src/parsing/command_redir_extract.c:0:3
	jmp	.LBB5_8
.LBB5_8:
	.loc	2 144 1 is_stmt 1               # src/parsing/command_redir_extract.c:144:1
	addq	$32, %rsp
	popq	%rbp
	.cfi_def_cfa %rsp, 8
	retq
.Ltmp47:
.Lfunc_end5:
	.size	handle_infile_token, .Lfunc_end5-handle_infile_token
	.cfi_endproc
                                        # -- End function
	.globl	extract_command_infile          # -- Begin function extract_command_infile
	.p2align	4, 0x90
	.type	extract_command_infile,@function
extract_command_infile:                 # @extract_command_infile
.Lfunc_begin6:
	.loc	2 148 0                         # src/parsing/command_redir_extract.c:148:0
	.cfi_startproc
# %bb.0:
	pushq	%rbp
	.cfi_def_cfa_offset 16
	.cfi_offset %rbp, -16
	movq	%rsp, %rbp
	.cfi_def_cfa_register %rbp
	subq	$32, %rsp
	movq	%rdi, -8(%rbp)
	movq	%rsi, -16(%rbp)
	movq	%rdx, -24(%rbp)
.Ltmp48:
	.loc	2 151 8 prologue_end            # src/parsing/command_redir_extract.c:151:8
	movl	$24, %edi
	callq	malloc
	.loc	2 151 6 is_stmt 0               # src/parsing/command_redir_extract.c:151:6
	movq	%rax, -32(%rbp)
.Ltmp49:
	.loc	2 152 7 is_stmt 1               # src/parsing/command_redir_extract.c:152:7
	cmpq	$0, -32(%rbp)
.Ltmp50:
	.loc	2 152 6 is_stmt 0               # src/parsing/command_redir_extract.c:152:6
	jne	.LBB6_2
# %bb.1:
.Ltmp51:
	.loc	2 154 3 is_stmt 1               # src/parsing/command_redir_extract.c:154:3
	movabsq	$.L.str.3, %rdi
	callq	perror
	.loc	2 155 3                         # src/parsing/command_redir_extract.c:155:3
	jmp	.LBB6_3
.Ltmp52:
.LBB6_2:
	.loc	2 157 2                         # src/parsing/command_redir_extract.c:157:2
	movq	-32(%rbp), %rax
	.loc	2 157 12 is_stmt 0              # src/parsing/command_redir_extract.c:157:12
	movq	$0, 16(%rax)
	.loc	2 158 14 is_stmt 1              # src/parsing/command_redir_extract.c:158:14
	movq	-16(%rbp), %rax
	.loc	2 158 21 is_stmt 0              # src/parsing/command_redir_extract.c:158:21
	movl	(%rax), %ecx
	.loc	2 158 2                         # src/parsing/command_redir_extract.c:158:2
	movq	-32(%rbp), %rax
	.loc	2 158 12                        # src/parsing/command_redir_extract.c:158:12
	movl	%ecx, 4(%rax)
	.loc	2 159 33 is_stmt 1              # src/parsing/command_redir_extract.c:159:33
	movq	-16(%rbp), %rax
	.loc	2 159 40 is_stmt 0              # src/parsing/command_redir_extract.c:159:40
	movq	16(%rax), %rdi
	.loc	2 159 48                        # src/parsing/command_redir_extract.c:159:48
	movq	-32(%rbp), %rax
	.loc	2 159 53                        # src/parsing/command_redir_extract.c:159:53
	movl	4(%rax), %esi
	.loc	2 159 14                        # src/parsing/command_redir_extract.c:159:14
	callq	get_redir_filename
	movq	%rax, %rcx
	.loc	2 159 2                         # src/parsing/command_redir_extract.c:159:2
	movq	-32(%rbp), %rax
	.loc	2 159 12                        # src/parsing/command_redir_extract.c:159:12
	movq	%rcx, 8(%rax)
	.loc	2 160 23 is_stmt 1              # src/parsing/command_redir_extract.c:160:23
	movq	-8(%rbp), %rdi
	.loc	2 160 34 is_stmt 0              # src/parsing/command_redir_extract.c:160:34
	movq	-32(%rbp), %rsi
	.loc	2 160 39                        # src/parsing/command_redir_extract.c:160:39
	movq	-24(%rbp), %rdx
	.loc	2 160 2                         # src/parsing/command_redir_extract.c:160:2
	callq	handle_infile_token
.LBB6_3:
	.loc	2 161 1 is_stmt 1               # src/parsing/command_redir_extract.c:161:1
	addq	$32, %rsp
	popq	%rbp
	.cfi_def_cfa %rsp, 8
	retq
.Ltmp53:
.Lfunc_end6:
	.size	extract_command_infile, .Lfunc_end6-extract_command_infile
	.cfi_endproc
                                        # -- End function
	.globl	manage_outfile_list             # -- Begin function manage_outfile_list
	.p2align	4, 0x90
	.type	manage_outfile_list,@function
manage_outfile_list:                    # @manage_outfile_list
.Lfunc_begin7:
	.loc	2 194 0                         # src/parsing/command_redir_extract.c:194:0
	.cfi_startproc
# %bb.0:
	pushq	%rbp
	.cfi_def_cfa_offset 16
	.cfi_offset %rbp, -16
	movq	%rsp, %rbp
	.cfi_def_cfa_register %rbp
	movq	%rdi, -8(%rbp)
	movq	%rsi, -16(%rbp)
.Ltmp54:
	.loc	2 197 11 prologue_end           # src/parsing/command_redir_extract.c:197:11
	movq	-8(%rbp), %rax
	.loc	2 197 10 is_stmt 0              # src/parsing/command_redir_extract.c:197:10
	movq	(%rax), %rax
	.loc	2 197 8                         # src/parsing/command_redir_extract.c:197:8
	movq	%rax, -24(%rbp)
.Ltmp55:
	.loc	2 198 6 is_stmt 1               # src/parsing/command_redir_extract.c:198:6
	cmpq	$0, -24(%rbp)
.Ltmp56:
	.loc	2 198 6 is_stmt 0               # src/parsing/command_redir_extract.c:198:6
	je	.LBB7_5
# %bb.1:
.Ltmp57:
	.loc	2 200 3 is_stmt 1               # src/parsing/command_redir_extract.c:200:3
	jmp	.LBB7_2
.LBB7_2:                                # =>This Inner Loop Header: Depth=1
	.loc	2 200 10 is_stmt 0              # src/parsing/command_redir_extract.c:200:10
	movq	-24(%rbp), %rax
	.loc	2 200 3                         # src/parsing/command_redir_extract.c:200:3
	cmpq	$0, 16(%rax)
	je	.LBB7_4
# %bb.3:                                #   in Loop: Header=BB7_2 Depth=1
	.loc	2 201 12 is_stmt 1              # src/parsing/command_redir_extract.c:201:12
	movq	-24(%rbp), %rax
	.loc	2 201 19 is_stmt 0              # src/parsing/command_redir_extract.c:201:19
	movq	16(%rax), %rax
	.loc	2 201 10                        # src/parsing/command_redir_extract.c:201:10
	movq	%rax, -24(%rbp)
	.loc	2 200 3 is_stmt 1               # src/parsing/command_redir_extract.c:200:3
	jmp	.LBB7_2
.LBB7_4:
	.loc	2 202 17                        # src/parsing/command_redir_extract.c:202:17
	movq	-16(%rbp), %rcx
	.loc	2 202 3 is_stmt 0               # src/parsing/command_redir_extract.c:202:3
	movq	-24(%rbp), %rax
	.loc	2 202 15                        # src/parsing/command_redir_extract.c:202:15
	movq	%rcx, 16(%rax)
	.loc	2 203 2 is_stmt 1               # src/parsing/command_redir_extract.c:203:2
	jmp	.LBB7_6
.Ltmp58:
.LBB7_5:
	.loc	2 205 14                        # src/parsing/command_redir_extract.c:205:14
	movq	-16(%rbp), %rcx
	.loc	2 205 4 is_stmt 0               # src/parsing/command_redir_extract.c:205:4
	movq	-8(%rbp), %rax
	.loc	2 205 12                        # src/parsing/command_redir_extract.c:205:12
	movq	%rcx, (%rax)
.Ltmp59:
.LBB7_6:
	.loc	2 206 1 is_stmt 1               # src/parsing/command_redir_extract.c:206:1
	popq	%rbp
	.cfi_def_cfa %rsp, 8
	retq
.Ltmp60:
.Lfunc_end7:
	.size	manage_outfile_list, .Lfunc_end7-manage_outfile_list
	.cfi_endproc
                                        # -- End function
	.globl	extract_command_outfile         # -- Begin function extract_command_outfile
	.p2align	4, 0x90
	.type	extract_command_outfile,@function
extract_command_outfile:                # @extract_command_outfile
.Lfunc_begin8:
	.loc	2 209 0                         # src/parsing/command_redir_extract.c:209:0
	.cfi_startproc
# %bb.0:
	pushq	%rbp
	.cfi_def_cfa_offset 16
	.cfi_offset %rbp, -16
	movq	%rsp, %rbp
	.cfi_def_cfa_register %rbp
	subq	$32, %rsp
	movq	%rdi, -8(%rbp)
	movq	%rsi, -16(%rbp)
.Ltmp61:
	.loc	2 212 8 prologue_end            # src/parsing/command_redir_extract.c:212:8
	movl	$24, %edi
	callq	malloc
	.loc	2 212 6 is_stmt 0               # src/parsing/command_redir_extract.c:212:6
	movq	%rax, -24(%rbp)
.Ltmp62:
	.loc	2 213 7 is_stmt 1               # src/parsing/command_redir_extract.c:213:7
	cmpq	$0, -24(%rbp)
.Ltmp63:
	.loc	2 213 6 is_stmt 0               # src/parsing/command_redir_extract.c:213:6
	jne	.LBB8_2
# %bb.1:
.Ltmp64:
	.loc	2 215 3 is_stmt 1               # src/parsing/command_redir_extract.c:215:3
	movabsq	$.L.str.3, %rdi
	callq	perror
	.loc	2 216 3                         # src/parsing/command_redir_extract.c:216:3
	jmp	.LBB8_3
.Ltmp65:
.LBB8_2:
	.loc	2 218 2                         # src/parsing/command_redir_extract.c:218:2
	movq	-24(%rbp), %rax
	.loc	2 218 12 is_stmt 0              # src/parsing/command_redir_extract.c:218:12
	movq	$0, 16(%rax)
	.loc	2 219 14 is_stmt 1              # src/parsing/command_redir_extract.c:219:14
	movq	-8(%rbp), %rax
	.loc	2 219 21 is_stmt 0              # src/parsing/command_redir_extract.c:219:21
	movl	(%rax), %ecx
	.loc	2 219 2                         # src/parsing/command_redir_extract.c:219:2
	movq	-24(%rbp), %rax
	.loc	2 219 12                        # src/parsing/command_redir_extract.c:219:12
	movl	%ecx, 4(%rax)
	.loc	2 220 33 is_stmt 1              # src/parsing/command_redir_extract.c:220:33
	movq	-8(%rbp), %rax
	.loc	2 220 40 is_stmt 0              # src/parsing/command_redir_extract.c:220:40
	movq	16(%rax), %rdi
	.loc	2 220 48                        # src/parsing/command_redir_extract.c:220:48
	movq	-24(%rbp), %rax
	.loc	2 220 53                        # src/parsing/command_redir_extract.c:220:53
	movl	4(%rax), %esi
	.loc	2 220 14                        # src/parsing/command_redir_extract.c:220:14
	callq	get_redir_filename
	movq	%rax, %rcx
	.loc	2 220 2                         # src/parsing/command_redir_extract.c:220:2
	movq	-24(%rbp), %rax
	.loc	2 220 12                        # src/parsing/command_redir_extract.c:220:12
	movq	%rcx, 8(%rax)
	.loc	2 221 22 is_stmt 1              # src/parsing/command_redir_extract.c:221:22
	movq	-16(%rbp), %rdi
	.loc	2 221 31 is_stmt 0              # src/parsing/command_redir_extract.c:221:31
	movq	-24(%rbp), %rsi
	.loc	2 221 2                         # src/parsing/command_redir_extract.c:221:2
	callq	manage_outfile_list
.LBB8_3:
	.loc	2 222 1 is_stmt 1               # src/parsing/command_redir_extract.c:222:1
	addq	$32, %rsp
	popq	%rbp
	.cfi_def_cfa %rsp, 8
	retq
.Ltmp66:
.Lfunc_end8:
	.size	extract_command_outfile, .Lfunc_end8-extract_command_outfile
	.cfi_endproc
                                        # -- End function
	.globl	get_command_redir               # -- Begin function get_command_redir
	.p2align	4, 0x90
	.type	get_command_redir,@function
get_command_redir:                      # @get_command_redir
.Lfunc_begin9:
	.loc	2 226 0                         # src/parsing/command_redir_extract.c:226:0
	.cfi_startproc
# %bb.0:
	pushq	%rbp
	.cfi_def_cfa_offset 16
	.cfi_offset %rbp, -16
	movq	%rsp, %rbp
	.cfi_def_cfa_register %rbp
	subq	$32, %rsp
	movq	%rdi, -8(%rbp)
	movq	%rsi, -16(%rbp)
	movq	%rdx, -24(%rbp)
.Ltmp67:
	.loc	2 227 8 prologue_end            # src/parsing/command_redir_extract.c:227:8
	movq	-24(%rbp), %rax
	.loc	2 227 15 is_stmt 0              # src/parsing/command_redir_extract.c:227:15
	cmpq	$0, (%rax)
.Ltmp68:
	.loc	2 227 6                         # src/parsing/command_redir_extract.c:227:6
	jne	.LBB9_4
# %bb.1:
.Ltmp69:
	.loc	2 229 14 is_stmt 1              # src/parsing/command_redir_extract.c:229:14
	movl	$24, %edi
	callq	malloc
	movq	%rax, %rcx
	.loc	2 229 5 is_stmt 0               # src/parsing/command_redir_extract.c:229:5
	movq	-24(%rbp), %rax
	.loc	2 229 12                        # src/parsing/command_redir_extract.c:229:12
	movq	%rcx, (%rax)
.Ltmp70:
	.loc	2 230 10 is_stmt 1              # src/parsing/command_redir_extract.c:230:10
	movq	-24(%rbp), %rax
	.loc	2 230 8 is_stmt 0               # src/parsing/command_redir_extract.c:230:8
	cmpq	$0, (%rax)
.Ltmp71:
	.loc	2 230 7                         # src/parsing/command_redir_extract.c:230:7
	jne	.LBB9_3
# %bb.2:
.Ltmp72:
	.loc	2 231 4 is_stmt 1               # src/parsing/command_redir_extract.c:231:4
	movabsq	$.L.str.4, %rdi
	callq	perror
.Ltmp73:
.LBB9_3:
	.loc	2 232 5                         # src/parsing/command_redir_extract.c:232:5
	movq	-24(%rbp), %rax
	.loc	2 232 4 is_stmt 0               # src/parsing/command_redir_extract.c:232:4
	movq	(%rax), %rax
	.loc	2 232 20                        # src/parsing/command_redir_extract.c:232:20
	movq	$0, 8(%rax)
	.loc	2 233 5 is_stmt 1               # src/parsing/command_redir_extract.c:233:5
	movq	-24(%rbp), %rax
	.loc	2 233 4 is_stmt 0               # src/parsing/command_redir_extract.c:233:4
	movq	(%rax), %rax
	.loc	2 233 21                        # src/parsing/command_redir_extract.c:233:21
	movq	$0, 16(%rax)
.Ltmp74:
.LBB9_4:
	.loc	2 235 6 is_stmt 1               # src/parsing/command_redir_extract.c:235:6
	movq	-16(%rbp), %rax
	.loc	2 235 18 is_stmt 0              # src/parsing/command_redir_extract.c:235:18
	cmpl	$12, (%rax)
	.loc	2 235 28                        # src/parsing/command_redir_extract.c:235:28
	je	.LBB9_6
# %bb.5:
	.loc	2 235 31                        # src/parsing/command_redir_extract.c:235:31
	movq	-16(%rbp), %rax
	.loc	2 235 43                        # src/parsing/command_redir_extract.c:235:43
	cmpl	$9, (%rax)
.Ltmp75:
	.loc	2 235 6                         # src/parsing/command_redir_extract.c:235:6
	jne	.LBB9_7
.LBB9_6:
.Ltmp76:
	.loc	2 236 26 is_stmt 1              # src/parsing/command_redir_extract.c:236:26
	movq	-8(%rbp), %rdi
	.loc	2 236 37 is_stmt 0              # src/parsing/command_redir_extract.c:236:37
	movq	-16(%rbp), %rsi
	.loc	2 236 47                        # src/parsing/command_redir_extract.c:236:47
	movq	-24(%rbp), %rax
	.loc	2 236 46                        # src/parsing/command_redir_extract.c:236:46
	movq	(%rax), %rdx
	.loc	2 236 55                        # src/parsing/command_redir_extract.c:236:55
	addq	$8, %rdx
	.loc	2 236 3                         # src/parsing/command_redir_extract.c:236:3
	callq	extract_command_infile
	jmp	.LBB9_11
.LBB9_7:
.Ltmp77:
	.loc	2 237 11 is_stmt 1              # src/parsing/command_redir_extract.c:237:11
	movq	-16(%rbp), %rax
	.loc	2 237 23 is_stmt 0              # src/parsing/command_redir_extract.c:237:23
	cmpl	$10, (%rax)
	.loc	2 237 34                        # src/parsing/command_redir_extract.c:237:34
	je	.LBB9_9
# %bb.8:
	.loc	2 237 37                        # src/parsing/command_redir_extract.c:237:37
	movq	-16(%rbp), %rax
	.loc	2 237 49                        # src/parsing/command_redir_extract.c:237:49
	cmpl	$11, (%rax)
.Ltmp78:
	.loc	2 237 11                        # src/parsing/command_redir_extract.c:237:11
	jne	.LBB9_10
.LBB9_9:
.Ltmp79:
	.loc	2 238 27 is_stmt 1              # src/parsing/command_redir_extract.c:238:27
	movq	-16(%rbp), %rdi
	.loc	2 238 37 is_stmt 0              # src/parsing/command_redir_extract.c:238:37
	movq	-24(%rbp), %rax
	.loc	2 238 36                        # src/parsing/command_redir_extract.c:238:36
	movq	(%rax), %rsi
	.loc	2 238 45                        # src/parsing/command_redir_extract.c:238:45
	addq	$16, %rsi
	.loc	2 238 3                         # src/parsing/command_redir_extract.c:238:3
	callq	extract_command_outfile
.Ltmp80:
.LBB9_10:
	.loc	2 0 3                           # src/parsing/command_redir_extract.c:0:3
	jmp	.LBB9_11
.LBB9_11:
	.loc	2 239 1 is_stmt 1               # src/parsing/command_redir_extract.c:239:1
	addq	$32, %rsp
	popq	%rbp
	.cfi_def_cfa %rsp, 8
	retq
.Ltmp81:
.Lfunc_end9:
	.size	get_command_redir, .Lfunc_end9-get_command_redir
	.cfi_endproc
                                        # -- End function
	.type	.L.str,@object                  # @.str
	.section	.rodata.str1.1,"aMS",@progbits,1
.L.str:
	.asciz	"/tmp/heredoc"
	.size	.L.str, 13

	.type	.L.str.1,@object                # @.str.1
.L.str.1:
	.asciz	"> "
	.size	.L.str.1, 3

	.type	.L.str.2,@object                # @.str.2
.L.str.2:
	.asciz	"bash: %s: %s\n"
	.size	.L.str.2, 14

	.type	.L.str.3,@object                # @.str.3
.L.str.3:
	.asciz	"malloc"
	.size	.L.str.3, 7

	.type	.L.str.4,@object                # @.str.4
.L.str.4:
	.asciz	"malloc:"
	.size	.L.str.4, 8

	.file	3 "/usr/include" "dirent.h"
	.file	4 "/usr/include" "signal.h"
	.file	5 "/usr/include/x86_64-linux-gnu/bits" "sigaction.h"
	.file	6 "/usr/include/x86_64-linux-gnu/bits/types" "siginfo_t.h"
	.file	7 "/usr/include/x86_64-linux-gnu/bits" "types.h"
	.file	8 "/usr/include/x86_64-linux-gnu/bits/types" "__sigval_t.h"
	.file	9 "/usr/include/x86_64-linux-gnu/bits/types" "__sigset_t.h"
	.file	10 "/usr/include/x86_64-linux-gnu/bits" "struct_stat.h"
	.file	11 "/usr/include/x86_64-linux-gnu/bits/types" "struct_timespec.h"
	.file	12 "/usr/include/x86_64-linux-gnu/bits" "termios.h"
	.file	13 "/usr/include/x86_64-linux-gnu/bits" "termios-struct.h"
	.section	".note.GNU-stack","",@progbits
	.addrsig
	.addrsig_sym get_redir_heredoc
	.addrsig_sym open
	.addrsig_sym write
	.addrsig_sym get_next_line
	.addrsig_sym ft_strncmp
	.addrsig_sym ft_strlen
	.addrsig_sym free
	.addrsig_sym close
	.addrsig_sym is_file_accessible
	.addrsig_sym access
	.addrsig_sym ft_printf
	.addrsig_sym strerror
	.addrsig_sym __errno_location
	.addrsig_sym add_infile_to_list
	.addrsig_sym handle_infile_token
	.addrsig_sym extract_command_infile
	.addrsig_sym malloc
	.addrsig_sym perror
	.addrsig_sym get_redir_filename
	.addrsig_sym manage_outfile_list
	.addrsig_sym extract_command_outfile