	.text
	.file	"command_generation.c"
	.file	1 "/mnt/nfs/homes/jbocktor/student/group_minishell/more_hope/minigroups" "src/parsing/../../include/minishell.h"
	.globl	init_command_attributes         # -- Begin function init_command_attributes
	.p2align	4, 0x90
	.type	init_command_attributes,@function
init_command_attributes:                # @init_command_attributes
.Lfunc_begin0:
	.file	2 "/mnt/nfs/homes/jbocktor/student/group_minishell/more_hope/minigroups" "src/parsing/command_generation.c"
	.loc	2 16 0                          # src/parsing/command_generation.c:16:0
	.cfi_startproc
# %bb.0:
	pushq	%rbp
	.cfi_def_cfa_offset 16
	.cfi_offset %rbp, -16
	movq	%rsp, %rbp
	.cfi_def_cfa_register %rbp
	movq	%rdi, -8(%rbp)
	movl	%esi, -12(%rbp)
.Ltmp0:
	.loc	2 17 15 prologue_end            # src/parsing/command_generation.c:17:15
	movl	-12(%rbp), %ecx
	.loc	2 17 4 is_stmt 0                # src/parsing/command_generation.c:17:4
	movq	-8(%rbp), %rax
	.loc	2 17 3                          # src/parsing/command_generation.c:17:3
	movq	(%rax), %rax
	.loc	2 17 13                         # src/parsing/command_generation.c:17:13
	movl	%ecx, (%rax)
	.loc	2 18 4 is_stmt 1                # src/parsing/command_generation.c:18:4
	movq	-8(%rbp), %rax
	.loc	2 18 3 is_stmt 0                # src/parsing/command_generation.c:18:3
	movq	(%rax), %rax
	.loc	2 18 15                         # src/parsing/command_generation.c:18:15
	movl	$0, 8(%rax)
	.loc	2 19 4 is_stmt 1                # src/parsing/command_generation.c:19:4
	movq	-8(%rbp), %rax
	.loc	2 19 3 is_stmt 0                # src/parsing/command_generation.c:19:3
	movq	(%rax), %rax
	.loc	2 19 14                         # src/parsing/command_generation.c:19:14
	movl	$-1, 4(%rax)
	.loc	2 20 4 is_stmt 1                # src/parsing/command_generation.c:20:4
	movq	-8(%rbp), %rax
	.loc	2 20 3 is_stmt 0                # src/parsing/command_generation.c:20:3
	movq	(%rax), %rax
	.loc	2 20 14                         # src/parsing/command_generation.c:20:14
	movq	$0, 32(%rax)
	.loc	2 21 4 is_stmt 1                # src/parsing/command_generation.c:21:4
	movq	-8(%rbp), %rax
	.loc	2 21 3 is_stmt 0                # src/parsing/command_generation.c:21:3
	movq	(%rax), %rax
	.loc	2 21 15                         # src/parsing/command_generation.c:21:15
	movq	$0, 16(%rax)
	.loc	2 22 4 is_stmt 1                # src/parsing/command_generation.c:22:4
	movq	-8(%rbp), %rax
	.loc	2 22 3 is_stmt 0                # src/parsing/command_generation.c:22:3
	movq	(%rax), %rax
	.loc	2 22 15                         # src/parsing/command_generation.c:22:15
	movq	$0, 96(%rax)
	.loc	2 23 4 is_stmt 1                # src/parsing/command_generation.c:23:4
	movq	-8(%rbp), %rax
	.loc	2 23 3 is_stmt 0                # src/parsing/command_generation.c:23:3
	movq	(%rax), %rax
	.loc	2 23 15                         # src/parsing/command_generation.c:23:15
	movq	$0, 104(%rax)
	.loc	2 24 4 is_stmt 1                # src/parsing/command_generation.c:24:4
	movq	-8(%rbp), %rax
	.loc	2 24 3 is_stmt 0                # src/parsing/command_generation.c:24:3
	movq	(%rax), %rax
	.loc	2 24 15                         # src/parsing/command_generation.c:24:15
	movq	$0, 24(%rax)
	.loc	2 25 4 is_stmt 1                # src/parsing/command_generation.c:25:4
	movq	-8(%rbp), %rax
	.loc	2 25 3 is_stmt 0                # src/parsing/command_generation.c:25:3
	movq	(%rax), %rax
	.loc	2 25 15                         # src/parsing/command_generation.c:25:15
	movq	$0, 40(%rax)
	.loc	2 26 4 is_stmt 1                # src/parsing/command_generation.c:26:4
	movq	-8(%rbp), %rax
	.loc	2 26 3 is_stmt 0                # src/parsing/command_generation.c:26:3
	movq	(%rax), %rax
	.loc	2 26 16                         # src/parsing/command_generation.c:26:16
	movq	$0, 48(%rax)
	.loc	2 27 4 is_stmt 1                # src/parsing/command_generation.c:27:4
	movq	-8(%rbp), %rax
	.loc	2 27 3 is_stmt 0                # src/parsing/command_generation.c:27:3
	movq	(%rax), %rax
	.loc	2 27 17                         # src/parsing/command_generation.c:27:17
	movq	$0, 64(%rax)
	.loc	2 28 4 is_stmt 1                # src/parsing/command_generation.c:28:4
	movq	-8(%rbp), %rax
	.loc	2 28 3 is_stmt 0                # src/parsing/command_generation.c:28:3
	movq	(%rax), %rax
	.loc	2 28 17                         # src/parsing/command_generation.c:28:17
	movq	$0, 56(%rax)
	.loc	2 29 4 is_stmt 1                # src/parsing/command_generation.c:29:4
	movq	-8(%rbp), %rax
	.loc	2 29 3 is_stmt 0                # src/parsing/command_generation.c:29:3
	movq	(%rax), %rax
	.loc	2 29 18                         # src/parsing/command_generation.c:29:18
	movq	$0, 72(%rax)
	.loc	2 30 4 is_stmt 1                # src/parsing/command_generation.c:30:4
	movq	-8(%rbp), %rax
	.loc	2 30 3 is_stmt 0                # src/parsing/command_generation.c:30:3
	movq	(%rax), %rax
	.loc	2 30 20                         # src/parsing/command_generation.c:30:20
	movq	$0, 88(%rax)
	.loc	2 31 1 is_stmt 1                # src/parsing/command_generation.c:31:1
	popq	%rbp
	.cfi_def_cfa %rsp, 8
	retq
.Ltmp1:
.Lfunc_end0:
	.size	init_command_attributes, .Lfunc_end0-init_command_attributes
	.cfi_endproc
                                        # -- End function
	.globl	extract_command_name            # -- Begin function extract_command_name
	.p2align	4, 0x90
	.type	extract_command_name,@function
extract_command_name:                   # @extract_command_name
.Lfunc_begin1:
	.loc	2 34 0                          # src/parsing/command_generation.c:34:0
	.cfi_startproc
# %bb.0:
	pushq	%rbp
	.cfi_def_cfa_offset 16
	.cfi_offset %rbp, -16
	movq	%rsp, %rbp
	.cfi_def_cfa_register %rbp
	subq	$32, %rsp
	movq	%rdi, -8(%rbp)
	movq	%rsi, -16(%rbp)
.Ltmp2:
	.loc	2 37 7 prologue_end             # src/parsing/command_generation.c:37:7
	cmpq	$0, -16(%rbp)
	.loc	2 37 11 is_stmt 0               # src/parsing/command_generation.c:37:11
	je	.LBB1_3
# %bb.1:
	.loc	2 37 15                         # src/parsing/command_generation.c:37:15
	movq	-16(%rbp), %rax
	cmpq	$0, (%rax)
	.loc	2 37 26                         # src/parsing/command_generation.c:37:26
	je	.LBB1_3
# %bb.2:
	.loc	2 37 31                         # src/parsing/command_generation.c:37:31
	movq	-8(%rbp), %rax
	.loc	2 37 29                         # src/parsing/command_generation.c:37:29
	cmpq	$0, (%rax)
.Ltmp3:
	.loc	2 37 6                          # src/parsing/command_generation.c:37:6
	je	.LBB1_4
.LBB1_3:
.Ltmp4:
	.loc	2 38 3 is_stmt 1                # src/parsing/command_generation.c:38:3
	jmp	.LBB1_7
.Ltmp5:
.LBB1_4:
	.loc	2 39 21                         # src/parsing/command_generation.c:39:21
	movq	-16(%rbp), %rax
	.loc	2 39 26 is_stmt 0               # src/parsing/command_generation.c:39:26
	movq	(%rax), %rdi
	.loc	2 39 11                         # src/parsing/command_generation.c:39:11
	callq	ft_strlen
                                        # kill: def $eax killed $eax killed $rax
	.loc	2 39 9                          # src/parsing/command_generation.c:39:9
	movl	%eax, -20(%rbp)
	.loc	2 40 23 is_stmt 1               # src/parsing/command_generation.c:40:23
	movl	-20(%rbp), %eax
	.loc	2 40 30 is_stmt 0               # src/parsing/command_generation.c:40:30
	addl	$1, %eax
	.loc	2 40 23                         # src/parsing/command_generation.c:40:23
	movslq	%eax, %rdi
	.loc	2 40 16                         # src/parsing/command_generation.c:40:16
	callq	malloc
	movq	%rax, %rcx
	.loc	2 40 4                          # src/parsing/command_generation.c:40:4
	movq	-8(%rbp), %rax
	.loc	2 40 14                         # src/parsing/command_generation.c:40:14
	movq	%rcx, (%rax)
.Ltmp6:
	.loc	2 41 9 is_stmt 1                # src/parsing/command_generation.c:41:9
	movq	-8(%rbp), %rax
	.loc	2 41 7 is_stmt 0                # src/parsing/command_generation.c:41:7
	cmpq	$0, (%rax)
.Ltmp7:
	.loc	2 41 6                          # src/parsing/command_generation.c:41:6
	jne	.LBB1_6
# %bb.5:
.Ltmp8:
	.loc	2 43 3 is_stmt 1                # src/parsing/command_generation.c:43:3
	movabsq	$.L.str, %rdi
	callq	perror
	.loc	2 44 3                          # src/parsing/command_generation.c:44:3
	callq	__errno_location
	.loc	2 44 9 is_stmt 0                # src/parsing/command_generation.c:44:9
	movl	$6, (%rax)
	.loc	2 45 3 is_stmt 1                # src/parsing/command_generation.c:45:3
	jmp	.LBB1_7
.Ltmp9:
.LBB1_6:
	.loc	2 47 15                         # src/parsing/command_generation.c:47:15
	movq	-8(%rbp), %rax
	.loc	2 47 14 is_stmt 0               # src/parsing/command_generation.c:47:14
	movq	(%rax), %rdi
	.loc	2 47 26                         # src/parsing/command_generation.c:47:26
	movq	-16(%rbp), %rax
	.loc	2 47 31                         # src/parsing/command_generation.c:47:31
	movq	(%rax), %rsi
	.loc	2 47 38                         # src/parsing/command_generation.c:47:38
	movl	-20(%rbp), %eax
	.loc	2 47 45                         # src/parsing/command_generation.c:47:45
	addl	$1, %eax
	.loc	2 47 38                         # src/parsing/command_generation.c:47:38
	movslq	%eax, %rdx
	.loc	2 47 2                          # src/parsing/command_generation.c:47:2
	callq	ft_strlcpy
.LBB1_7:
	.loc	2 48 1 is_stmt 1                # src/parsing/command_generation.c:48:1
	addq	$32, %rsp
	popq	%rbp
	.cfi_def_cfa %rsp, 8
	retq
.Ltmp10:
.Lfunc_end1:
	.size	extract_command_name, .Lfunc_end1-extract_command_name
	.cfi_endproc
                                        # -- End function
	.globl	extract_command                 # -- Begin function extract_command
	.p2align	4, 0x90
	.type	extract_command,@function
extract_command:                        # @extract_command
.Lfunc_begin2:
	.loc	2 51 0                          # src/parsing/command_generation.c:51:0
	.cfi_startproc
# %bb.0:
	pushq	%rbp
	.cfi_def_cfa_offset 16
	.cfi_offset %rbp, -16
	movq	%rsp, %rbp
	.cfi_def_cfa_register %rbp
	subq	$32, %rsp
	movq	%rdi, -8(%rbp)
	movq	%rsi, -16(%rbp)
	movq	%rdx, -24(%rbp)
.LBB2_1:                                # =>This Inner Loop Header: Depth=1
.Ltmp11:
	.loc	2 52 10 prologue_end            # src/parsing/command_generation.c:52:10
	movq	-24(%rbp), %rcx
	.loc	2 52 9 is_stmt 0                # src/parsing/command_generation.c:52:9
	xorl	%eax, %eax
                                        # kill: def $al killed $al killed $eax
	cmpq	$0, (%rcx)
	movb	%al, -25(%rbp)                  # 1-byte Spill
	.loc	2 52 16                         # src/parsing/command_generation.c:52:16
	je	.LBB2_5
# %bb.2:                                #   in Loop: Header=BB2_1 Depth=1
	.loc	2 52 21                         # src/parsing/command_generation.c:52:21
	movq	-24(%rbp), %rax
	.loc	2 52 20                         # src/parsing/command_generation.c:52:20
	movq	(%rax), %rcx
	.loc	2 52 34                         # src/parsing/command_generation.c:52:34
	xorl	%eax, %eax
                                        # kill: def $al killed $al killed $eax
	cmpl	$18, (%rcx)
	movb	%al, -25(%rbp)                  # 1-byte Spill
	.loc	2 53 3 is_stmt 1                # src/parsing/command_generation.c:53:3
	je	.LBB2_5
# %bb.3:                                #   in Loop: Header=BB2_1 Depth=1
	.loc	2 53 6 is_stmt 0                # src/parsing/command_generation.c:53:6
	callq	__errno_location
	movq	%rax, %rcx
	.loc	2 53 12                         # src/parsing/command_generation.c:53:12
	xorl	%eax, %eax
                                        # kill: def $al killed $al killed $eax
	cmpl	$0, (%rcx)
	movb	%al, -25(%rbp)                  # 1-byte Spill
	.loc	2 53 17                         # src/parsing/command_generation.c:53:17
	jne	.LBB2_5
# %bb.4:                                #   in Loop: Header=BB2_1 Depth=1
	.loc	2 53 40                         # src/parsing/command_generation.c:53:40
	movq	-24(%rbp), %rax
	.loc	2 53 39                         # src/parsing/command_generation.c:53:39
	movq	(%rax), %rdi
	.loc	2 53 20                         # src/parsing/command_generation.c:53:20
	callq	is_operator_token
	andb	$1, %al
	movzbl	%al, %eax
	.loc	2 53 48                         # src/parsing/command_generation.c:53:48
	cmpl	$0, %eax
	sete	%al
	movb	%al, -25(%rbp)                  # 1-byte Spill
.LBB2_5:                                #   in Loop: Header=BB2_1 Depth=1
	.loc	2 0 48                          # src/parsing/command_generation.c:0:48
	movb	-25(%rbp), %al                  # 1-byte Reload
	.loc	2 52 2 is_stmt 1                # src/parsing/command_generation.c:52:2
	testb	$1, %al
	jne	.LBB2_6
	jmp	.LBB2_13
.LBB2_6:                                #   in Loop: Header=BB2_1 Depth=1
.Ltmp12:
	.loc	2 55 24                         # src/parsing/command_generation.c:55:24
	movq	-24(%rbp), %rax
	.loc	2 55 23 is_stmt 0               # src/parsing/command_generation.c:55:23
	movq	(%rax), %rax
	.loc	2 55 32                         # src/parsing/command_generation.c:55:32
	movl	(%rax), %edi
	.loc	2 55 7                          # src/parsing/command_generation.c:55:7
	callq	is_redirection
	andb	$1, %al
	movzbl	%al, %eax
	.loc	2 55 38                         # src/parsing/command_generation.c:55:38
	cmpl	$1, %eax
.Ltmp13:
	.loc	2 55 7                          # src/parsing/command_generation.c:55:7
	jne	.LBB2_8
# %bb.7:                                #   in Loop: Header=BB2_1 Depth=1
.Ltmp14:
	.loc	2 56 22 is_stmt 1               # src/parsing/command_generation.c:56:22
	movq	-8(%rbp), %rdi
	.loc	2 56 34 is_stmt 0               # src/parsing/command_generation.c:56:34
	movq	-24(%rbp), %rax
	.loc	2 56 33                         # src/parsing/command_generation.c:56:33
	movq	(%rax), %rsi
	.loc	2 56 44                         # src/parsing/command_generation.c:56:44
	movq	-16(%rbp), %rax
	.loc	2 56 43                         # src/parsing/command_generation.c:56:43
	movq	(%rax), %rdx
	.loc	2 56 50                         # src/parsing/command_generation.c:56:50
	addq	$48, %rdx
	.loc	2 56 4                          # src/parsing/command_generation.c:56:4
	callq	get_command_redir
	jmp	.LBB2_12
.LBB2_8:                                #   in Loop: Header=BB2_1 Depth=1
.Ltmp15:
	.loc	2 57 14 is_stmt 1               # src/parsing/command_generation.c:57:14
	movq	-24(%rbp), %rax
	.loc	2 57 13 is_stmt 0               # src/parsing/command_generation.c:57:13
	movq	(%rax), %rax
	.loc	2 57 27                         # src/parsing/command_generation.c:57:27
	cmpl	$17, (%rax)
.Ltmp16:
	.loc	2 57 12                         # src/parsing/command_generation.c:57:12
	jne	.LBB2_10
# %bb.9:                                #   in Loop: Header=BB2_1 Depth=1
.Ltmp17:
	.loc	2 58 24 is_stmt 1               # src/parsing/command_generation.c:58:24
	movq	-24(%rbp), %rax
	.loc	2 58 23 is_stmt 0               # src/parsing/command_generation.c:58:23
	movq	(%rax), %rdi
	.loc	2 58 34                         # src/parsing/command_generation.c:58:34
	movq	-16(%rbp), %rax
	.loc	2 58 33                         # src/parsing/command_generation.c:58:33
	movq	(%rax), %rsi
	.loc	2 58 40                         # src/parsing/command_generation.c:58:40
	addq	$64, %rsi
	.loc	2 58 4                          # src/parsing/command_generation.c:58:4
	callq	get_command_assign
	jmp	.LBB2_11
.LBB2_10:                               #   in Loop: Header=BB2_1 Depth=1
.Ltmp18:
	.loc	2 61 20 is_stmt 1               # src/parsing/command_generation.c:61:20
	movq	-8(%rbp), %rdi
	.loc	2 61 32 is_stmt 0               # src/parsing/command_generation.c:61:32
	movq	-24(%rbp), %rax
	.loc	2 61 31                         # src/parsing/command_generation.c:61:31
	movq	(%rax), %rsi
	.loc	2 61 42                         # src/parsing/command_generation.c:61:42
	movq	-16(%rbp), %rax
	.loc	2 61 41                         # src/parsing/command_generation.c:61:41
	movq	(%rax), %rdx
	.loc	2 61 48                         # src/parsing/command_generation.c:61:48
	addq	$32, %rdx
	.loc	2 61 53                         # src/parsing/command_generation.c:61:53
	movq	-8(%rbp), %rax
	.loc	2 61 64                         # src/parsing/command_generation.c:61:64
	movq	56(%rax), %rcx
	.loc	2 61 4                          # src/parsing/command_generation.c:61:4
	callq	get_command_arg
	.loc	2 62 28 is_stmt 1               # src/parsing/command_generation.c:62:28
	movq	-16(%rbp), %rax
	.loc	2 62 27 is_stmt 0               # src/parsing/command_generation.c:62:27
	movq	(%rax), %rdi
	.loc	2 62 34                         # src/parsing/command_generation.c:62:34
	addq	$16, %rdi
	.loc	2 62 42                         # src/parsing/command_generation.c:62:42
	movq	-16(%rbp), %rax
	.loc	2 62 41                         # src/parsing/command_generation.c:62:41
	movq	(%rax), %rax
	.loc	2 62 48                         # src/parsing/command_generation.c:62:48
	movq	32(%rax), %rsi
	.loc	2 62 4                          # src/parsing/command_generation.c:62:4
	callq	extract_command_name
.Ltmp19:
.LBB2_11:                               #   in Loop: Header=BB2_1 Depth=1
	.loc	2 0 4                           # src/parsing/command_generation.c:0:4
	jmp	.LBB2_12
.LBB2_12:                               #   in Loop: Header=BB2_1 Depth=1
	.loc	2 64 14 is_stmt 1               # src/parsing/command_generation.c:64:14
	movq	-24(%rbp), %rax
	.loc	2 64 13 is_stmt 0               # src/parsing/command_generation.c:64:13
	movq	(%rax), %rax
	.loc	2 64 22                         # src/parsing/command_generation.c:64:22
	movq	40(%rax), %rcx
	.loc	2 64 4                          # src/parsing/command_generation.c:64:4
	movq	-24(%rbp), %rax
	.loc	2 64 10                         # src/parsing/command_generation.c:64:10
	movq	%rcx, (%rax)
.Ltmp20:
	.loc	2 52 2 is_stmt 1                # src/parsing/command_generation.c:52:2
	jmp	.LBB2_1
.LBB2_13:
.Ltmp21:
	.loc	2 66 8                          # src/parsing/command_generation.c:66:8
	movq	-16(%rbp), %rax
	.loc	2 66 7 is_stmt 0                # src/parsing/command_generation.c:66:7
	movq	(%rax), %rax
	.loc	2 66 6                          # src/parsing/command_generation.c:66:6
	cmpq	$0, 32(%rax)
	.loc	2 66 18                         # src/parsing/command_generation.c:66:18
	je	.LBB2_16
# %bb.14:
	.loc	2 66 21                         # src/parsing/command_generation.c:66:21
	callq	__errno_location
	.loc	2 66 27                         # src/parsing/command_generation.c:66:27
	cmpl	$0, (%rax)
.Ltmp22:
	.loc	2 66 6                          # src/parsing/command_generation.c:66:6
	jne	.LBB2_16
# %bb.15:
.Ltmp23:
	.loc	2 68 35 is_stmt 1               # src/parsing/command_generation.c:68:35
	movq	-8(%rbp), %rax
	.loc	2 68 46 is_stmt 0               # src/parsing/command_generation.c:68:46
	movq	24(%rax), %rdi
	.loc	2 68 54                         # src/parsing/command_generation.c:68:54
	movq	-16(%rbp), %rax
	.loc	2 68 53                         # src/parsing/command_generation.c:68:53
	movq	(%rax), %rax
	.loc	2 68 60                         # src/parsing/command_generation.c:68:60
	movq	16(%rax), %rsi
	.loc	2 68 18                         # src/parsing/command_generation.c:68:18
	callq	get_command_path
	movq	%rax, %rcx
	.loc	2 68 5                          # src/parsing/command_generation.c:68:5
	movq	-16(%rbp), %rax
	.loc	2 68 4                          # src/parsing/command_generation.c:68:4
	movq	(%rax), %rax
	.loc	2 68 16                         # src/parsing/command_generation.c:68:16
	movq	%rcx, 24(%rax)
	.loc	2 69 47 is_stmt 1               # src/parsing/command_generation.c:69:47
	movq	-16(%rbp), %rax
	.loc	2 69 46 is_stmt 0               # src/parsing/command_generation.c:69:46
	movq	(%rax), %rax
	.loc	2 69 53                         # src/parsing/command_generation.c:69:53
	movq	32(%rax), %rdi
	.loc	2 69 23                         # src/parsing/command_generation.c:69:23
	callq	get_command_arg_array
	movq	%rax, %rcx
	.loc	2 69 5                          # src/parsing/command_generation.c:69:5
	movq	-16(%rbp), %rax
	.loc	2 69 4                          # src/parsing/command_generation.c:69:4
	movq	(%rax), %rax
	.loc	2 69 21                         # src/parsing/command_generation.c:69:21
	movq	%rcx, 88(%rax)
.Ltmp24:
.LBB2_16:
	.loc	2 71 1 is_stmt 1                # src/parsing/command_generation.c:71:1
	addq	$32, %rsp
	popq	%rbp
	.cfi_def_cfa %rsp, 8
	retq
.Ltmp25:
.Lfunc_end2:
	.size	extract_command, .Lfunc_end2-extract_command
	.cfi_endproc
                                        # -- End function
	.globl	get_command_type                # -- Begin function get_command_type
	.p2align	4, 0x90
	.type	get_command_type,@function
get_command_type:                       # @get_command_type
.Lfunc_begin3:
	.loc	2 74 0                          # src/parsing/command_generation.c:74:0
	.cfi_startproc
# %bb.0:
	pushq	%rbp
	.cfi_def_cfa_offset 16
	.cfi_offset %rbp, -16
	movq	%rsp, %rbp
	.cfi_def_cfa_register %rbp
	subq	$16, %rsp
	movq	%rdi, -8(%rbp)
.Ltmp26:
	.loc	2 75 8 prologue_end             # src/parsing/command_generation.c:75:8
	movq	-8(%rbp), %rax
	.loc	2 75 7 is_stmt 0                # src/parsing/command_generation.c:75:7
	movq	(%rax), %rax
	.loc	2 75 6                          # src/parsing/command_generation.c:75:6
	cmpq	$0, 64(%rax)
	.loc	2 75 21                         # src/parsing/command_generation.c:75:21
	je	.LBB3_3
# %bb.1:
	.loc	2 75 27                         # src/parsing/command_generation.c:75:27
	movq	-8(%rbp), %rax
	.loc	2 75 26                         # src/parsing/command_generation.c:75:26
	movq	(%rax), %rax
	.loc	2 75 25                         # src/parsing/command_generation.c:75:25
	cmpq	$0, 32(%rax)
.Ltmp27:
	.loc	2 75 6                          # src/parsing/command_generation.c:75:6
	jne	.LBB3_3
# %bb.2:
.Ltmp28:
	.loc	2 76 5 is_stmt 1                # src/parsing/command_generation.c:76:5
	movq	-8(%rbp), %rax
	.loc	2 76 4 is_stmt 0                # src/parsing/command_generation.c:76:4
	movq	(%rax), %rax
	.loc	2 76 16                         # src/parsing/command_generation.c:76:16
	movl	$3, 8(%rax)
	.loc	2 76 3                          # src/parsing/command_generation.c:76:3
	jmp	.LBB3_7
.LBB3_3:
.Ltmp29:
	.loc	2 77 24 is_stmt 1               # src/parsing/command_generation.c:77:24
	movq	-8(%rbp), %rax
	.loc	2 77 23 is_stmt 0               # src/parsing/command_generation.c:77:23
	movq	(%rax), %rax
	.loc	2 77 30                         # src/parsing/command_generation.c:77:30
	movq	16(%rax), %rdi
	.loc	2 77 11                         # src/parsing/command_generation.c:77:11
	callq	is_builtin
.Ltmp30:
	.loc	2 77 11                         # src/parsing/command_generation.c:77:11
	testb	$1, %al
	jne	.LBB3_4
	jmp	.LBB3_5
.LBB3_4:
.Ltmp31:
	.loc	2 78 5 is_stmt 1                # src/parsing/command_generation.c:78:5
	movq	-8(%rbp), %rax
	.loc	2 78 4 is_stmt 0                # src/parsing/command_generation.c:78:4
	movq	(%rax), %rax
	.loc	2 78 16                         # src/parsing/command_generation.c:78:16
	movl	$2, 8(%rax)
	.loc	2 78 3                          # src/parsing/command_generation.c:78:3
	jmp	.LBB3_6
.LBB3_5:
	.loc	2 80 5 is_stmt 1                # src/parsing/command_generation.c:80:5
	movq	-8(%rbp), %rax
	.loc	2 80 4 is_stmt 0                # src/parsing/command_generation.c:80:4
	movq	(%rax), %rax
	.loc	2 80 16                         # src/parsing/command_generation.c:80:16
	movl	$1, 8(%rax)
.Ltmp32:
.LBB3_6:
	.loc	2 0 16                          # src/parsing/command_generation.c:0:16
	jmp	.LBB3_7
.LBB3_7:
	.loc	2 81 1 is_stmt 1                # src/parsing/command_generation.c:81:1
	addq	$16, %rsp
	popq	%rbp
	.cfi_def_cfa %rsp, 8
	retq
.Ltmp33:
.Lfunc_end3:
	.size	get_command_type, .Lfunc_end3-get_command_type
	.cfi_endproc
                                        # -- End function
	.globl	get_command                     # -- Begin function get_command
	.p2align	4, 0x90
	.type	get_command,@function
get_command:                            # @get_command
.Lfunc_begin4:
	.loc	2 84 0                          # src/parsing/command_generation.c:84:0
	.cfi_startproc
# %bb.0:
	pushq	%rbp
	.cfi_def_cfa_offset 16
	.cfi_offset %rbp, -16
	movq	%rsp, %rbp
	.cfi_def_cfa_register %rbp
	subq	$48, %rsp
	movq	%rdi, -16(%rbp)
	movq	%rsi, -24(%rbp)
	movl	%edx, -28(%rbp)
.Ltmp34:
	.loc	2 87 8 prologue_end             # src/parsing/command_generation.c:87:8
	movl	$112, %edi
	callq	malloc
	.loc	2 87 6 is_stmt 0                # src/parsing/command_generation.c:87:6
	movq	%rax, -40(%rbp)
.Ltmp35:
	.loc	2 88 7 is_stmt 1                # src/parsing/command_generation.c:88:7
	cmpq	$0, -40(%rbp)
.Ltmp36:
	.loc	2 88 6 is_stmt 0                # src/parsing/command_generation.c:88:6
	jne	.LBB4_2
# %bb.1:
.Ltmp37:
	.loc	2 89 11 is_stmt 1               # src/parsing/command_generation.c:89:11
	movabsq	$.L.str, %rdi
	callq	perror
	.loc	2 89 3 is_stmt 0                # src/parsing/command_generation.c:89:3
	movq	$0, -8(%rbp)
	jmp	.LBB4_3
.Ltmp38:
.LBB4_2:
	.loc	2 90 32 is_stmt 1               # src/parsing/command_generation.c:90:32
	movl	-28(%rbp), %esi
	.loc	2 90 2 is_stmt 0                # src/parsing/command_generation.c:90:2
	leaq	-40(%rbp), %rdi
	callq	init_command_attributes
	.loc	2 91 18 is_stmt 1               # src/parsing/command_generation.c:91:18
	movq	-16(%rbp), %rdi
	.loc	2 91 35 is_stmt 0               # src/parsing/command_generation.c:91:35
	movq	-24(%rbp), %rdx
	.loc	2 91 2                          # src/parsing/command_generation.c:91:2
	leaq	-40(%rbp), %rsi
	callq	extract_command
	.loc	2 92 2 is_stmt 1                # src/parsing/command_generation.c:92:2
	leaq	-40(%rbp), %rdi
	callq	get_command_type
	.loc	2 93 10                         # src/parsing/command_generation.c:93:10
	movq	-40(%rbp), %rax
	.loc	2 93 2 is_stmt 0                # src/parsing/command_generation.c:93:2
	movq	%rax, -8(%rbp)
.LBB4_3:
	.loc	2 94 1 is_stmt 1                # src/parsing/command_generation.c:94:1
	movq	-8(%rbp), %rax
	addq	$48, %rsp
	popq	%rbp
	.cfi_def_cfa %rsp, 8
	retq
.Ltmp39:
.Lfunc_end4:
	.size	get_command, .Lfunc_end4-get_command
	.cfi_endproc
                                        # -- End function
	.type	.L.str,@object                  # @.str
	.section	.rodata.str1.1,"aMS",@progbits,1
.L.str:
	.asciz	"malloc"
	.size	.L.str, 7

	.file	3 "/usr/include" "dirent.h"
	.file	4 "/usr/include" "signal.h"
	.file	5 "/usr/include/x86_64-linux-gnu/bits" "sigaction.h"
	.file	6 "/usr/include/x86_64-linux-gnu/bits/types" "siginfo_t.h"
	.file	7 "/usr/include/x86_64-linux-gnu/bits" "types.h"
	.file	8 "/usr/include/x86_64-linux-gnu/bits/types" "__sigval_t.h"
	.file	9 "/usr/include/x86_64-linux-gnu/bits/types" "__sigset_t.h"
	.file	10 "/usr/include/x86_64-linux-gnu/bits" "struct_stat.h"
	.file	11 "/usr/include/x86_64-linux-gnu/bits/types" "struct_timespec.h"
	.file	12 "/usr/include/x86_64-linux-gnu/bits" "termios.h"
	.file	13 "/usr/include/x86_64-linux-gnu/bits" "termios-struct.h"
	.section	".note.GNU-stack","",@progbits
	.addrsig
	.addrsig_sym init_command_attributes
	.addrsig_sym extract_command_name
	.addrsig_sym ft_strlen
	.addrsig_sym malloc
	.addrsig_sym perror
	.addrsig_sym __errno_location
	.addrsig_sym ft_strlcpy
	.addrsig_sym extract_command
	.addrsig_sym is_operator_token
	.addrsig_sym is_redirection
	.addrsig_sym get_command_redir
	.addrsig_sym get_command_assign
	.addrsig_sym get_command_arg
	.addrsig_sym get_command_path
	.addrsig_sym get_command_arg_array
	.addrsig_sym get_command_type
	.addrsig_sym is_builtin