	.text
	.file	"command_redir_open.c"
	.file	1 "/mnt/nfs/homes/jbocktor/student/group_minishell/more_hope/minigroups" "src/parsing/../../include/minishell.h"
	.globl	open_command_infile             # -- Begin function open_command_infile
	.p2align	4, 0x90
	.type	open_command_infile,@function
open_command_infile:                    # @open_command_infile
.Lfunc_begin0:
	.file	2 "/mnt/nfs/homes/jbocktor/student/group_minishell/more_hope/minigroups" "src/parsing/command_redir_open.c"
	.loc	2 16 0                          # src/parsing/command_redir_open.c:16:0
	.cfi_startproc
# %bb.0:
	pushq	%rbp
	.cfi_def_cfa_offset 16
	.cfi_offset %rbp, -16
	movq	%rsp, %rbp
	.cfi_def_cfa_register %rbp
	subq	$32, %rsp
	movq	%rdi, -8(%rbp)
.Ltmp0:
	.loc	2 20 8 prologue_end             # src/parsing/command_redir_open.c:20:8
	movl	$-1, -12(%rbp)
	.loc	2 21 10                         # src/parsing/command_redir_open.c:21:10
	movq	-8(%rbp), %rax
	.loc	2 21 15 is_stmt 0               # src/parsing/command_redir_open.c:21:15
	movq	48(%rax), %rax
	.loc	2 21 22                         # src/parsing/command_redir_open.c:21:22
	movq	8(%rax), %rax
	.loc	2 21 8                          # src/parsing/command_redir_open.c:21:8
	movq	%rax, -24(%rbp)
.LBB0_1:                                # =>This Inner Loop Header: Depth=1
	.loc	2 22 2 is_stmt 1                # src/parsing/command_redir_open.c:22:2
	cmpq	$0, -24(%rbp)
	je	.LBB0_5
# %bb.2:                                #   in Loop: Header=BB0_1 Depth=1
.Ltmp1:
	.loc	2 24 7                          # src/parsing/command_redir_open.c:24:7
	movq	-24(%rbp), %rax
	.loc	2 24 19 is_stmt 0               # src/parsing/command_redir_open.c:24:19
	cmpq	$0, 16(%rax)
.Ltmp2:
	.loc	2 24 7                          # src/parsing/command_redir_open.c:24:7
	jne	.LBB0_4
# %bb.3:
.Ltmp3:
	.loc	2 25 4 is_stmt 1                # src/parsing/command_redir_open.c:25:4
	jmp	.LBB0_5
.Ltmp4:
.LBB0_4:                                #   in Loop: Header=BB0_1 Depth=1
	.loc	2 26 11                         # src/parsing/command_redir_open.c:26:11
	movq	-24(%rbp), %rax
	.loc	2 26 18 is_stmt 0               # src/parsing/command_redir_open.c:26:18
	movq	16(%rax), %rax
	.loc	2 26 9                          # src/parsing/command_redir_open.c:26:9
	movq	%rax, -24(%rbp)
.Ltmp5:
	.loc	2 22 2 is_stmt 1                # src/parsing/command_redir_open.c:22:2
	jmp	.LBB0_1
.LBB0_5:
.Ltmp6:
	.loc	2 28 6                          # src/parsing/command_redir_open.c:28:6
	movq	-24(%rbp), %rax
	.loc	2 28 18 is_stmt 0               # src/parsing/command_redir_open.c:28:18
	cmpl	$9, 4(%rax)
.Ltmp7:
	.loc	2 28 6                          # src/parsing/command_redir_open.c:28:6
	jne	.LBB0_7
# %bb.6:
.Ltmp8:
	.loc	2 29 11 is_stmt 1               # src/parsing/command_redir_open.c:29:11
	movabsq	$.L.str, %rdi
	xorl	%esi, %esi
	movb	$0, %al
	callq	open
	.loc	2 29 9 is_stmt 0                # src/parsing/command_redir_open.c:29:9
	movl	%eax, -12(%rbp)
	.loc	2 29 3                          # src/parsing/command_redir_open.c:29:3
	jmp	.LBB0_8
.LBB0_7:
	.loc	2 31 16 is_stmt 1               # src/parsing/command_redir_open.c:31:16
	movq	-24(%rbp), %rax
	.loc	2 31 23 is_stmt 0               # src/parsing/command_redir_open.c:31:23
	movq	8(%rax), %rdi
	.loc	2 31 11                         # src/parsing/command_redir_open.c:31:11
	xorl	%esi, %esi
	movb	$0, %al
	callq	open
	.loc	2 31 9                          # src/parsing/command_redir_open.c:31:9
	movl	%eax, -12(%rbp)
.Ltmp9:
.LBB0_8:
	.loc	2 32 10 is_stmt 1               # src/parsing/command_redir_open.c:32:10
	movl	-12(%rbp), %eax
	.loc	2 32 2 is_stmt 0                # src/parsing/command_redir_open.c:32:2
	addq	$32, %rsp
	popq	%rbp
	.cfi_def_cfa %rsp, 8
	retq
.Ltmp10:
.Lfunc_end0:
	.size	open_command_infile, .Lfunc_end0-open_command_infile
	.cfi_endproc
                                        # -- End function
	.globl	open_command_outfile            # -- Begin function open_command_outfile
	.p2align	4, 0x90
	.type	open_command_outfile,@function
open_command_outfile:                   # @open_command_outfile
.Lfunc_begin1:
	.loc	2 36 0 is_stmt 1                # src/parsing/command_redir_open.c:36:0
	.cfi_startproc
# %bb.0:
	pushq	%rbp
	.cfi_def_cfa_offset 16
	.cfi_offset %rbp, -16
	movq	%rsp, %rbp
	.cfi_def_cfa_register %rbp
	subq	$32, %rsp
	movq	%rdi, -8(%rbp)
.Ltmp11:
	.loc	2 40 9 prologue_end             # src/parsing/command_redir_open.c:40:9
	movl	$-1, -12(%rbp)
	.loc	2 41 10                         # src/parsing/command_redir_open.c:41:10
	movq	-8(%rbp), %rax
	.loc	2 41 15 is_stmt 0               # src/parsing/command_redir_open.c:41:15
	movq	48(%rax), %rax
	.loc	2 41 22                         # src/parsing/command_redir_open.c:41:22
	movq	16(%rax), %rax
	.loc	2 41 8                          # src/parsing/command_redir_open.c:41:8
	movq	%rax, -24(%rbp)
.LBB1_1:                                # =>This Inner Loop Header: Depth=1
	.loc	2 42 2 is_stmt 1                # src/parsing/command_redir_open.c:42:2
	cmpq	$0, -24(%rbp)
	je	.LBB1_11
# %bb.2:                                #   in Loop: Header=BB1_1 Depth=1
.Ltmp12:
	.loc	2 44 7                          # src/parsing/command_redir_open.c:44:7
	movq	-24(%rbp), %rax
	.loc	2 44 19 is_stmt 0               # src/parsing/command_redir_open.c:44:19
	cmpl	$10, 4(%rax)
.Ltmp13:
	.loc	2 44 7                          # src/parsing/command_redir_open.c:44:7
	jne	.LBB1_4
# %bb.3:                                #   in Loop: Header=BB1_1 Depth=1
.Ltmp14:
	.loc	2 45 18 is_stmt 1               # src/parsing/command_redir_open.c:45:18
	movq	-24(%rbp), %rax
	.loc	2 45 25 is_stmt 0               # src/parsing/command_redir_open.c:45:25
	movq	8(%rax), %rdi
	.loc	2 45 13                         # src/parsing/command_redir_open.c:45:13
	movl	$577, %esi                      # imm = 0x241
	movl	$420, %edx                      # imm = 0x1A4
	movb	$0, %al
	callq	open
	.loc	2 45 11                         # src/parsing/command_redir_open.c:45:11
	movl	%eax, -12(%rbp)
	.loc	2 45 4                          # src/parsing/command_redir_open.c:45:4
	jmp	.LBB1_7
.LBB1_4:                                #   in Loop: Header=BB1_1 Depth=1
.Ltmp15:
	.loc	2 47 12 is_stmt 1               # src/parsing/command_redir_open.c:47:12
	movq	-24(%rbp), %rax
	.loc	2 47 24 is_stmt 0               # src/parsing/command_redir_open.c:47:24
	cmpl	$11, 4(%rax)
.Ltmp16:
	.loc	2 47 12                         # src/parsing/command_redir_open.c:47:12
	jne	.LBB1_6
# %bb.5:                                #   in Loop: Header=BB1_1 Depth=1
.Ltmp17:
	.loc	2 48 18 is_stmt 1               # src/parsing/command_redir_open.c:48:18
	movq	-24(%rbp), %rax
	.loc	2 48 25 is_stmt 0               # src/parsing/command_redir_open.c:48:25
	movq	8(%rax), %rdi
	.loc	2 48 13                         # src/parsing/command_redir_open.c:48:13
	movl	$1089, %esi                     # imm = 0x441
	movl	$420, %edx                      # imm = 0x1A4
	movb	$0, %al
	callq	open
	.loc	2 48 11                         # src/parsing/command_redir_open.c:48:11
	movl	%eax, -12(%rbp)
.Ltmp18:
.LBB1_6:                                #   in Loop: Header=BB1_1 Depth=1
	.loc	2 0 11                          # src/parsing/command_redir_open.c:0:11
	jmp	.LBB1_7
.LBB1_7:                                #   in Loop: Header=BB1_1 Depth=1
.Ltmp19:
	.loc	2 50 7 is_stmt 1                # src/parsing/command_redir_open.c:50:7
	movq	-24(%rbp), %rax
	.loc	2 50 19 is_stmt 0               # src/parsing/command_redir_open.c:50:19
	cmpq	$0, 16(%rax)
.Ltmp20:
	.loc	2 50 7                          # src/parsing/command_redir_open.c:50:7
	jne	.LBB1_9
# %bb.8:
.Ltmp21:
	.loc	2 51 4 is_stmt 1                # src/parsing/command_redir_open.c:51:4
	jmp	.LBB1_11
.LBB1_9:                                #   in Loop: Header=BB1_1 Depth=1
	.loc	2 53 10                         # src/parsing/command_redir_open.c:53:10
	movq	-24(%rbp), %rax
	.loc	2 53 17 is_stmt 0               # src/parsing/command_redir_open.c:53:17
	movl	(%rax), %edi
	.loc	2 53 4                          # src/parsing/command_redir_open.c:53:4
	callq	close
.Ltmp22:
# %bb.10:                               #   in Loop: Header=BB1_1 Depth=1
	.loc	2 54 11 is_stmt 1               # src/parsing/command_redir_open.c:54:11
	movq	-24(%rbp), %rax
	.loc	2 54 18 is_stmt 0               # src/parsing/command_redir_open.c:54:18
	movq	16(%rax), %rax
	.loc	2 54 9                          # src/parsing/command_redir_open.c:54:9
	movq	%rax, -24(%rbp)
.Ltmp23:
	.loc	2 42 2 is_stmt 1                # src/parsing/command_redir_open.c:42:2
	jmp	.LBB1_1
.LBB1_11:
	.loc	2 56 10                         # src/parsing/command_redir_open.c:56:10
	movl	-12(%rbp), %eax
	.loc	2 56 2 is_stmt 0                # src/parsing/command_redir_open.c:56:2
	addq	$32, %rsp
	popq	%rbp
	.cfi_def_cfa %rsp, 8
	retq
.Ltmp24:
.Lfunc_end1:
	.size	open_command_outfile, .Lfunc_end1-open_command_outfile
	.cfi_endproc
                                        # -- End function
	.globl	backup_in_out                   # -- Begin function backup_in_out
	.p2align	4, 0x90
	.type	backup_in_out,@function
backup_in_out:                          # @backup_in_out
.Lfunc_begin2:
	.loc	2 60 0 is_stmt 1                # src/parsing/command_redir_open.c:60:0
	.cfi_startproc
# %bb.0:
	pushq	%rbp
	.cfi_def_cfa_offset 16
	.cfi_offset %rbp, -16
	movq	%rsp, %rbp
	.cfi_def_cfa_register %rbp
	subq	$16, %rsp
	movq	%rdi, -8(%rbp)
.Ltmp25:
	.loc	2 61 29 prologue_end            # src/parsing/command_redir_open.c:61:29
	xorl	%edi, %edi
	callq	dup
	movl	%eax, %ecx
	.loc	2 61 2 is_stmt 0                # src/parsing/command_redir_open.c:61:2
	movq	-8(%rbp), %rax
	.loc	2 61 27                         # src/parsing/command_redir_open.c:61:27
	movl	%ecx, (%rax)
	.loc	2 62 30 is_stmt 1               # src/parsing/command_redir_open.c:62:30
	movl	$1, %edi
	callq	dup
	movl	%eax, %ecx
	.loc	2 62 2 is_stmt 0                # src/parsing/command_redir_open.c:62:2
	movq	-8(%rbp), %rax
	.loc	2 62 28                         # src/parsing/command_redir_open.c:62:28
	movl	%ecx, 4(%rax)
	.loc	2 63 1 is_stmt 1                # src/parsing/command_redir_open.c:63:1
	addq	$16, %rsp
	popq	%rbp
	.cfi_def_cfa %rsp, 8
	retq
.Ltmp26:
.Lfunc_end2:
	.size	backup_in_out, .Lfunc_end2-backup_in_out
	.cfi_endproc
                                        # -- End function
	.globl	open_command_redirection        # -- Begin function open_command_redirection
	.p2align	4, 0x90
	.type	open_command_redirection,@function
open_command_redirection:               # @open_command_redirection
.Lfunc_begin3:
	.loc	2 66 0                          # src/parsing/command_redir_open.c:66:0
	.cfi_startproc
# %bb.0:
	pushq	%rbp
	.cfi_def_cfa_offset 16
	.cfi_offset %rbp, -16
	movq	%rsp, %rbp
	.cfi_def_cfa_register %rbp
	subq	$16, %rsp
	movq	%rdi, -8(%rbp)
.Ltmp27:
	.loc	2 67 6 prologue_end             # src/parsing/command_redir_open.c:67:6
	movq	-8(%rbp), %rax
	.loc	2 67 11 is_stmt 0               # src/parsing/command_redir_open.c:67:11
	movq	48(%rax), %rax
	.loc	2 67 6                          # src/parsing/command_redir_open.c:67:6
	cmpq	$0, 8(%rax)
.Ltmp28:
	.loc	2 67 6                          # src/parsing/command_redir_open.c:67:6
	je	.LBB3_2
# %bb.1:
.Ltmp29:
	.loc	2 69 43 is_stmt 1               # src/parsing/command_redir_open.c:69:43
	movq	-8(%rbp), %rdi
	.loc	2 69 23 is_stmt 0               # src/parsing/command_redir_open.c:69:23
	callq	open_command_infile
	movl	%eax, %ecx
	.loc	2 69 3                          # src/parsing/command_redir_open.c:69:3
	movq	-8(%rbp), %rax
	.loc	2 69 8                          # src/parsing/command_redir_open.c:69:8
	movq	48(%rax), %rax
	.loc	2 69 21                         # src/parsing/command_redir_open.c:69:21
	movl	%ecx, (%rax)
	.loc	2 70 8 is_stmt 1                # src/parsing/command_redir_open.c:70:8
	movq	-8(%rbp), %rax
	.loc	2 70 13 is_stmt 0               # src/parsing/command_redir_open.c:70:13
	movq	48(%rax), %rax
	.loc	2 70 20                         # src/parsing/command_redir_open.c:70:20
	movl	(%rax), %edi
	.loc	2 70 3                          # src/parsing/command_redir_open.c:70:3
	xorl	%esi, %esi
	callq	dup2
.Ltmp30:
.LBB3_2:
	.loc	2 72 6 is_stmt 1                # src/parsing/command_redir_open.c:72:6
	movq	-8(%rbp), %rax
	.loc	2 72 11 is_stmt 0               # src/parsing/command_redir_open.c:72:11
	movq	48(%rax), %rax
	.loc	2 72 6                          # src/parsing/command_redir_open.c:72:6
	cmpq	$0, 16(%rax)
.Ltmp31:
	.loc	2 72 6                          # src/parsing/command_redir_open.c:72:6
	je	.LBB3_4
# %bb.3:
.Ltmp32:
	.loc	2 74 45 is_stmt 1               # src/parsing/command_redir_open.c:74:45
	movq	-8(%rbp), %rdi
	.loc	2 74 24 is_stmt 0               # src/parsing/command_redir_open.c:74:24
	callq	open_command_outfile
	movl	%eax, %ecx
	.loc	2 74 3                          # src/parsing/command_redir_open.c:74:3
	movq	-8(%rbp), %rax
	.loc	2 74 8                          # src/parsing/command_redir_open.c:74:8
	movq	48(%rax), %rax
	.loc	2 74 22                         # src/parsing/command_redir_open.c:74:22
	movl	%ecx, 4(%rax)
	.loc	2 75 8 is_stmt 1                # src/parsing/command_redir_open.c:75:8
	movq	-8(%rbp), %rax
	.loc	2 75 13 is_stmt 0               # src/parsing/command_redir_open.c:75:13
	movq	48(%rax), %rax
	.loc	2 75 20                         # src/parsing/command_redir_open.c:75:20
	movl	4(%rax), %edi
	.loc	2 75 3                          # src/parsing/command_redir_open.c:75:3
	movl	$1, %esi
	callq	dup2
.Ltmp33:
.LBB3_4:
	.loc	2 77 1 is_stmt 1                # src/parsing/command_redir_open.c:77:1
	addq	$16, %rsp
	popq	%rbp
	.cfi_def_cfa %rsp, 8
	retq
.Ltmp34:
.Lfunc_end3:
	.size	open_command_redirection, .Lfunc_end3-open_command_redirection
	.cfi_endproc
                                        # -- End function
	.globl	close_redirection               # -- Begin function close_redirection
	.p2align	4, 0x90
	.type	close_redirection,@function
close_redirection:                      # @close_redirection
.Lfunc_begin4:
	.loc	2 80 0                          # src/parsing/command_redir_open.c:80:0
	.cfi_startproc
# %bb.0:
	pushq	%rbp
	.cfi_def_cfa_offset 16
	.cfi_offset %rbp, -16
	movq	%rsp, %rbp
	.cfi_def_cfa_register %rbp
	subq	$16, %rsp
	movq	%rdi, -8(%rbp)
	movq	%rsi, -16(%rbp)
.Ltmp35:
	.loc	2 81 6 prologue_end             # src/parsing/command_redir_open.c:81:6
	movq	-16(%rbp), %rax
	.loc	2 81 11 is_stmt 0               # src/parsing/command_redir_open.c:81:11
	movq	48(%rax), %rax
	.loc	2 81 6                          # src/parsing/command_redir_open.c:81:6
	cmpq	$0, 8(%rax)
.Ltmp36:
	.loc	2 81 6                          # src/parsing/command_redir_open.c:81:6
	je	.LBB4_2
# %bb.1:
.Ltmp37:
	.loc	2 82 8 is_stmt 1                # src/parsing/command_redir_open.c:82:8
	movq	-8(%rbp), %rax
	.loc	2 82 20 is_stmt 0               # src/parsing/command_redir_open.c:82:20
	movl	(%rax), %edi
	.loc	2 82 3                          # src/parsing/command_redir_open.c:82:3
	xorl	%esi, %esi
	callq	dup2
.Ltmp38:
.LBB4_2:
	.loc	2 83 6 is_stmt 1                # src/parsing/command_redir_open.c:83:6
	movq	-16(%rbp), %rax
	.loc	2 83 11 is_stmt 0               # src/parsing/command_redir_open.c:83:11
	movq	48(%rax), %rax
	.loc	2 83 6                          # src/parsing/command_redir_open.c:83:6
	cmpq	$0, 16(%rax)
.Ltmp39:
	.loc	2 83 6                          # src/parsing/command_redir_open.c:83:6
	je	.LBB4_4
# %bb.3:
.Ltmp40:
	.loc	2 84 8 is_stmt 1                # src/parsing/command_redir_open.c:84:8
	movq	-8(%rbp), %rax
	.loc	2 84 20 is_stmt 0               # src/parsing/command_redir_open.c:84:20
	movl	4(%rax), %edi
	.loc	2 84 3                          # src/parsing/command_redir_open.c:84:3
	movl	$1, %esi
	callq	dup2
.Ltmp41:
.LBB4_4:
	.loc	2 85 1 is_stmt 1                # src/parsing/command_redir_open.c:85:1
	addq	$16, %rsp
	popq	%rbp
	.cfi_def_cfa %rsp, 8
	retq
.Ltmp42:
.Lfunc_end4:
	.size	close_redirection, .Lfunc_end4-close_redirection
	.cfi_endproc
                                        # -- End function
	.type	.L.str,@object                  # @.str
	.section	.rodata.str1.1,"aMS",@progbits,1
.L.str:
	.asciz	"/tmp/heredoc"
	.size	.L.str, 13

	.section	".note.GNU-stack","",@progbits
	.addrsig
	.addrsig_sym open_command_infile
	.addrsig_sym open
	.addrsig_sym open_command_outfile
	.addrsig_sym close
	.addrsig_sym dup
	.addrsig_sym dup2