	.text
	.file	"command_arg.c"
	.globl	get_argument_nbr                # -- Begin function get_argument_nbr
	.p2align	4, 0x90
	.type	get_argument_nbr,@function
get_argument_nbr:                       # @get_argument_nbr
.Lfunc_begin0:
	.file	1 "/mnt/nfs/homes/cboukhal/42/minishell" "src/parsing/command_arg.c"
	.loc	1 16 0                          # src/parsing/command_arg.c:16:0
	.cfi_startproc
# %bb.0:
	pushq	%rbp
	.cfi_def_cfa_offset 16
	.cfi_offset %rbp, -16
	movq	%rsp, %rbp
	.cfi_def_cfa_register %rbp
	movq	%rdi, -8(%rbp)
.Ltmp0:
	.loc	1 20 4 prologue_end             # src/parsing/command_arg.c:20:4
	movl	$0, -12(%rbp)
	.loc	1 21 8                          # src/parsing/command_arg.c:21:8
	movq	-8(%rbp), %rax
	.loc	1 21 6 is_stmt 0                # src/parsing/command_arg.c:21:6
	movq	%rax, -24(%rbp)
.LBB0_1:                                # =>This Inner Loop Header: Depth=1
	.loc	1 22 2 is_stmt 1                # src/parsing/command_arg.c:22:2
	cmpq	$0, -24(%rbp)
	je	.LBB0_3
# %bb.2:                                #   in Loop: Header=BB0_1 Depth=1
.Ltmp1:
	.loc	1 24 9                          # src/parsing/command_arg.c:24:9
	movq	-24(%rbp), %rax
	.loc	1 24 14 is_stmt 0               # src/parsing/command_arg.c:24:14
	movq	8(%rax), %rax
	.loc	1 24 7                          # src/parsing/command_arg.c:24:7
	movq	%rax, -24(%rbp)
	.loc	1 25 4 is_stmt 1                # src/parsing/command_arg.c:25:4
	movl	-12(%rbp), %eax
	addl	$1, %eax
	movl	%eax, -12(%rbp)
.Ltmp2:
	.loc	1 22 2                          # src/parsing/command_arg.c:22:2
	jmp	.LBB0_1
.LBB0_3:
	.loc	1 27 10                         # src/parsing/command_arg.c:27:10
	movl	-12(%rbp), %eax
	.loc	1 27 2 is_stmt 0                # src/parsing/command_arg.c:27:2
	popq	%rbp
	.cfi_def_cfa %rsp, 8
	retq
.Ltmp3:
.Lfunc_end0:
	.size	get_argument_nbr, .Lfunc_end0-get_argument_nbr
	.cfi_endproc
                                        # -- End function
	.globl	extract_argument                # -- Begin function extract_argument
	.p2align	4, 0x90
	.type	extract_argument,@function
extract_argument:                       # @extract_argument
.Lfunc_begin1:
	.loc	1 31 0 is_stmt 1                # src/parsing/command_arg.c:31:0
	.cfi_startproc
# %bb.0:
	pushq	%rbp
	.cfi_def_cfa_offset 16
	.cfi_offset %rbp, -16
	movq	%rsp, %rbp
	.cfi_def_cfa_register %rbp
	subq	$32, %rsp
	movq	%rdi, -16(%rbp)
.Ltmp4:
	.loc	1 36 7 prologue_end             # src/parsing/command_arg.c:36:7
	cmpq	$0, -16(%rbp)
.Ltmp5:
	.loc	1 36 6 is_stmt 0                # src/parsing/command_arg.c:36:6
	jne	.LBB1_2
# %bb.1:
.Ltmp6:
	.loc	1 37 3 is_stmt 1                # src/parsing/command_arg.c:37:3
	movq	$0, -8(%rbp)
	jmp	.LBB1_8
.Ltmp7:
.LBB1_2:
	.loc	1 38 21                         # src/parsing/command_arg.c:38:21
	movq	-16(%rbp), %rdi
	.loc	1 38 11 is_stmt 0               # src/parsing/command_arg.c:38:11
	callq	ft_strlen
                                        # kill: def $eax killed $eax killed $rax
	.loc	1 38 9                          # src/parsing/command_arg.c:38:9
	movl	%eax, -24(%rbp)
	.loc	1 39 15 is_stmt 1               # src/parsing/command_arg.c:39:15
	movl	-24(%rbp), %eax
	.loc	1 39 22 is_stmt 0               # src/parsing/command_arg.c:39:22
	addl	$1, %eax
	.loc	1 39 15                         # src/parsing/command_arg.c:39:15
	movslq	%eax, %rdi
	.loc	1 39 8                          # src/parsing/command_arg.c:39:8
	callq	malloc
	.loc	1 39 6                          # src/parsing/command_arg.c:39:6
	movq	%rax, -32(%rbp)
.Ltmp8:
	.loc	1 40 7 is_stmt 1                # src/parsing/command_arg.c:40:7
	cmpq	$0, -32(%rbp)
.Ltmp9:
	.loc	1 40 6 is_stmt 0                # src/parsing/command_arg.c:40:6
	jne	.LBB1_4
# %bb.3:
.Ltmp10:
	.loc	1 41 11 is_stmt 1               # src/parsing/command_arg.c:41:11
	movabsq	$.L.str, %rdi
	callq	perror
	.loc	1 41 3 is_stmt 0                # src/parsing/command_arg.c:41:3
	movq	$0, -8(%rbp)
	jmp	.LBB1_8
.Ltmp11:
.LBB1_4:
	.loc	1 42 4 is_stmt 1                # src/parsing/command_arg.c:42:4
	movl	$0, -20(%rbp)
.LBB1_5:                                # =>This Inner Loop Header: Depth=1
	.loc	1 43 9                          # src/parsing/command_arg.c:43:9
	movl	-20(%rbp), %eax
	.loc	1 43 11 is_stmt 0               # src/parsing/command_arg.c:43:11
	cmpl	-24(%rbp), %eax
	.loc	1 43 2                          # src/parsing/command_arg.c:43:2
	jge	.LBB1_7
# %bb.6:                                #   in Loop: Header=BB1_5 Depth=1
.Ltmp12:
	.loc	1 45 12 is_stmt 1               # src/parsing/command_arg.c:45:12
	movq	-16(%rbp), %rax
	movslq	-20(%rbp), %rcx
	movb	(%rax,%rcx), %dl
	.loc	1 45 3 is_stmt 0                # src/parsing/command_arg.c:45:3
	movq	-32(%rbp), %rax
	movslq	-20(%rbp), %rcx
	.loc	1 45 10                         # src/parsing/command_arg.c:45:10
	movb	%dl, (%rax,%rcx)
	.loc	1 46 4 is_stmt 1                # src/parsing/command_arg.c:46:4
	movl	-20(%rbp), %eax
	addl	$1, %eax
	movl	%eax, -20(%rbp)
.Ltmp13:
	.loc	1 43 2                          # src/parsing/command_arg.c:43:2
	jmp	.LBB1_5
.LBB1_7:
	.loc	1 48 2                          # src/parsing/command_arg.c:48:2
	movq	-32(%rbp), %rax
	movslq	-20(%rbp), %rcx
	.loc	1 48 9 is_stmt 0                # src/parsing/command_arg.c:48:9
	movb	$0, (%rax,%rcx)
	.loc	1 49 10 is_stmt 1               # src/parsing/command_arg.c:49:10
	movq	-32(%rbp), %rax
	.loc	1 49 2 is_stmt 0                # src/parsing/command_arg.c:49:2
	movq	%rax, -8(%rbp)
.LBB1_8:
	.loc	1 50 1 is_stmt 1                # src/parsing/command_arg.c:50:1
	movq	-8(%rbp), %rax
	addq	$32, %rsp
	popq	%rbp
	.cfi_def_cfa %rsp, 8
	retq
.Ltmp14:
.Lfunc_end1:
	.size	extract_argument, .Lfunc_end1-extract_argument
	.cfi_endproc
                                        # -- End function
	.globl	get_command_arg_array           # -- Begin function get_command_arg_array
	.p2align	4, 0x90
	.type	get_command_arg_array,@function
get_command_arg_array:                  # @get_command_arg_array
.Lfunc_begin2:
	.loc	1 53 0                          # src/parsing/command_arg.c:53:0
	.cfi_startproc
# %bb.0:
	pushq	%rbp
	.cfi_def_cfa_offset 16
	.cfi_offset %rbp, -16
	movq	%rsp, %rbp
	.cfi_def_cfa_register %rbp
	subq	$32, %rsp
	movq	%rdi, -16(%rbp)
.Ltmp15:
	.loc	1 58 4 prologue_end             # src/parsing/command_arg.c:58:4
	movl	$0, -20(%rbp)
	.loc	1 59 28                         # src/parsing/command_arg.c:59:28
	movq	-16(%rbp), %rdi
	.loc	1 59 11 is_stmt 0               # src/parsing/command_arg.c:59:11
	callq	get_argument_nbr
	.loc	1 59 9                          # src/parsing/command_arg.c:59:9
	movl	%eax, -24(%rbp)
	.loc	1 60 39 is_stmt 1               # src/parsing/command_arg.c:60:39
	movl	-24(%rbp), %eax
	.loc	1 60 46 is_stmt 0               # src/parsing/command_arg.c:60:46
	addl	$1, %eax
	.loc	1 60 38                         # src/parsing/command_arg.c:60:38
	movslq	%eax, %rdi
	.loc	1 60 36                         # src/parsing/command_arg.c:60:36
	shlq	$3, %rdi
	.loc	1 60 14                         # src/parsing/command_arg.c:60:14
	callq	malloc
	.loc	1 60 12                         # src/parsing/command_arg.c:60:12
	movq	%rax, -32(%rbp)
.Ltmp16:
	.loc	1 61 7 is_stmt 1                # src/parsing/command_arg.c:61:7
	cmpq	$0, -32(%rbp)
.Ltmp17:
	.loc	1 61 6 is_stmt 0                # src/parsing/command_arg.c:61:6
	jne	.LBB2_2
# %bb.1:
.Ltmp18:
	.loc	1 62 11 is_stmt 1               # src/parsing/command_arg.c:62:11
	movabsq	$.L.str.1, %rdi
	callq	perror
	.loc	1 62 3 is_stmt 0                # src/parsing/command_arg.c:62:3
	movq	$0, -8(%rbp)
	jmp	.LBB2_6
.Ltmp19:
.LBB2_2:
	.loc	1 63 2 is_stmt 1                # src/parsing/command_arg.c:63:2
	jmp	.LBB2_3
.LBB2_3:                                # =>This Inner Loop Header: Depth=1
	.loc	1 63 9 is_stmt 0                # src/parsing/command_arg.c:63:9
	movl	-20(%rbp), %eax
	.loc	1 63 11                         # src/parsing/command_arg.c:63:11
	cmpl	-24(%rbp), %eax
	.loc	1 63 2                          # src/parsing/command_arg.c:63:2
	jge	.LBB2_5
# %bb.4:                                #   in Loop: Header=BB2_3 Depth=1
.Ltmp20:
	.loc	1 65 35 is_stmt 1               # src/parsing/command_arg.c:65:35
	movq	-16(%rbp), %rax
	.loc	1 65 40 is_stmt 0               # src/parsing/command_arg.c:65:40
	movq	(%rax), %rdi
	.loc	1 65 18                         # src/parsing/command_arg.c:65:18
	callq	extract_argument
	movq	%rax, %rdx
	.loc	1 65 3                          # src/parsing/command_arg.c:65:3
	movq	-32(%rbp), %rax
	movslq	-20(%rbp), %rcx
	.loc	1 65 16                         # src/parsing/command_arg.c:65:16
	movq	%rdx, (%rax,%rcx,8)
	.loc	1 66 9 is_stmt 1                # src/parsing/command_arg.c:66:9
	movq	-16(%rbp), %rax
	.loc	1 66 14 is_stmt 0               # src/parsing/command_arg.c:66:14
	movq	8(%rax), %rax
	.loc	1 66 7                          # src/parsing/command_arg.c:66:7
	movq	%rax, -16(%rbp)
	.loc	1 67 4 is_stmt 1                # src/parsing/command_arg.c:67:4
	movl	-20(%rbp), %eax
	addl	$1, %eax
	movl	%eax, -20(%rbp)
.Ltmp21:
	.loc	1 63 2                          # src/parsing/command_arg.c:63:2
	jmp	.LBB2_3
.LBB2_5:
	.loc	1 69 2                          # src/parsing/command_arg.c:69:2
	movq	-32(%rbp), %rax
	movslq	-20(%rbp), %rcx
	.loc	1 69 15 is_stmt 0               # src/parsing/command_arg.c:69:15
	movq	$0, (%rax,%rcx,8)
	.loc	1 70 10 is_stmt 1               # src/parsing/command_arg.c:70:10
	movq	-32(%rbp), %rax
	.loc	1 70 2 is_stmt 0                # src/parsing/command_arg.c:70:2
	movq	%rax, -8(%rbp)
.LBB2_6:
	.loc	1 71 1 is_stmt 1                # src/parsing/command_arg.c:71:1
	movq	-8(%rbp), %rax
	addq	$32, %rsp
	popq	%rbp
	.cfi_def_cfa %rsp, 8
	retq
.Ltmp22:
.Lfunc_end2:
	.size	get_command_arg_array, .Lfunc_end2-get_command_arg_array
	.cfi_endproc
                                        # -- End function
	.globl	get_command_arg                 # -- Begin function get_command_arg
	.p2align	4, 0x90
	.type	get_command_arg,@function
get_command_arg:                        # @get_command_arg
.Lfunc_begin3:
	.loc	1 75 0                          # src/parsing/command_arg.c:75:0
	.cfi_startproc
# %bb.0:
	pushq	%rbp
	.cfi_def_cfa_offset 16
	.cfi_offset %rbp, -16
	movq	%rsp, %rbp
	.cfi_def_cfa_register %rbp
	subq	$48, %rsp
	movq	%rdi, -8(%rbp)
	movq	%rsi, -16(%rbp)
	movq	%rdx, -24(%rbp)
	movq	%rcx, -32(%rbp)
.Ltmp23:
	.loc	1 79 19 prologue_end            # src/parsing/command_arg.c:79:19
	movq	-8(%rbp), %rdi
	.loc	1 79 38 is_stmt 0               # src/parsing/command_arg.c:79:38
	movq	-32(%rbp), %rdx
	.loc	1 79 2                          # src/parsing/command_arg.c:79:2
	leaq	-16(%rbp), %rsi
	callq	manage_expansion
.Ltmp24:
	.loc	1 80 7 is_stmt 1                # src/parsing/command_arg.c:80:7
	movq	-16(%rbp), %rax
	cmpq	$0, 16(%rax)
.Ltmp25:
	.loc	1 80 6 is_stmt 0                # src/parsing/command_arg.c:80:6
	jne	.LBB3_2
# %bb.1:
.Ltmp26:
	.loc	1 81 3 is_stmt 1                # src/parsing/command_arg.c:81:3
	jmp	.LBB3_12
.Ltmp27:
.LBB3_2:
	.loc	1 82 8                          # src/parsing/command_arg.c:82:8
	movl	$16, %edi
	callq	malloc
	.loc	1 82 6 is_stmt 0                # src/parsing/command_arg.c:82:6
	movq	%rax, -48(%rbp)
.Ltmp28:
	.loc	1 83 7 is_stmt 1                # src/parsing/command_arg.c:83:7
	cmpq	$0, -48(%rbp)
.Ltmp29:
	.loc	1 83 6 is_stmt 0                # src/parsing/command_arg.c:83:6
	jne	.LBB3_4
# %bb.3:
.Ltmp30:
	.loc	1 84 11 is_stmt 1               # src/parsing/command_arg.c:84:11
	movabsq	$.L.str, %rdi
	callq	perror
	.loc	1 84 3 is_stmt 0                # src/parsing/command_arg.c:84:3
	jmp	.LBB3_12
.Ltmp31:
.LBB3_4:
	.loc	1 85 32 is_stmt 1               # src/parsing/command_arg.c:85:32
	movq	-16(%rbp), %rax
	.loc	1 85 39 is_stmt 0               # src/parsing/command_arg.c:85:39
	movq	16(%rax), %rdi
	.loc	1 85 15                         # src/parsing/command_arg.c:85:15
	callq	extract_argument
	movq	%rax, %rcx
	.loc	1 85 2                          # src/parsing/command_arg.c:85:2
	movq	-48(%rbp), %rax
	.loc	1 85 13                         # src/parsing/command_arg.c:85:13
	movq	%rcx, (%rax)
	.loc	1 86 2 is_stmt 1                # src/parsing/command_arg.c:86:2
	movq	-48(%rbp), %rax
	.loc	1 86 12 is_stmt 0               # src/parsing/command_arg.c:86:12
	movq	$0, 8(%rax)
.Ltmp32:
	.loc	1 87 8 is_stmt 1                # src/parsing/command_arg.c:87:8
	movq	-24(%rbp), %rax
	.loc	1 87 19 is_stmt 0               # src/parsing/command_arg.c:87:19
	cmpq	$0, (%rax)
.Ltmp33:
	.loc	1 87 6                          # src/parsing/command_arg.c:87:6
	jne	.LBB3_6
# %bb.5:
.Ltmp34:
	.loc	1 89 18 is_stmt 1               # src/parsing/command_arg.c:89:18
	movq	-48(%rbp), %rcx
	.loc	1 89 5 is_stmt 0                # src/parsing/command_arg.c:89:5
	movq	-24(%rbp), %rax
	.loc	1 89 16                         # src/parsing/command_arg.c:89:16
	movq	%rcx, (%rax)
	.loc	1 90 3 is_stmt 1                # src/parsing/command_arg.c:90:3
	jmp	.LBB3_12
.Ltmp35:
.LBB3_6:
	.loc	1 92 12                         # src/parsing/command_arg.c:92:12
	movq	-24(%rbp), %rax
	.loc	1 92 11 is_stmt 0               # src/parsing/command_arg.c:92:11
	movq	(%rax), %rax
	.loc	1 92 8                          # src/parsing/command_arg.c:92:8
	movq	%rax, -40(%rbp)
.LBB3_7:                                # =>This Inner Loop Header: Depth=1
	.loc	1 93 2 is_stmt 1                # src/parsing/command_arg.c:93:2
	cmpq	$0, -40(%rbp)
	je	.LBB3_11
# %bb.8:                                #   in Loop: Header=BB3_7 Depth=1
.Ltmp36:
	.loc	1 95 7                          # src/parsing/command_arg.c:95:7
	movq	-40(%rbp), %rax
	.loc	1 95 19 is_stmt 0               # src/parsing/command_arg.c:95:19
	cmpq	$0, 8(%rax)
.Ltmp37:
	.loc	1 95 7                          # src/parsing/command_arg.c:95:7
	jne	.LBB3_10
# %bb.9:
.Ltmp38:
	.loc	1 96 4 is_stmt 1                # src/parsing/command_arg.c:96:4
	jmp	.LBB3_11
.Ltmp39:
.LBB3_10:                               #   in Loop: Header=BB3_7 Depth=1
	.loc	1 97 11                         # src/parsing/command_arg.c:97:11
	movq	-40(%rbp), %rax
	.loc	1 97 18 is_stmt 0               # src/parsing/command_arg.c:97:18
	movq	8(%rax), %rax
	.loc	1 97 9                          # src/parsing/command_arg.c:97:9
	movq	%rax, -40(%rbp)
.Ltmp40:
	.loc	1 93 2 is_stmt 1                # src/parsing/command_arg.c:93:2
	jmp	.LBB3_7
.LBB3_11:
	.loc	1 99 16                         # src/parsing/command_arg.c:99:16
	movq	-48(%rbp), %rcx
	.loc	1 99 2 is_stmt 0                # src/parsing/command_arg.c:99:2
	movq	-40(%rbp), %rax
	.loc	1 99 14                         # src/parsing/command_arg.c:99:14
	movq	%rcx, 8(%rax)
.LBB3_12:
	.loc	1 100 1 is_stmt 1               # src/parsing/command_arg.c:100:1
	addq	$48, %rsp
	popq	%rbp
	.cfi_def_cfa %rsp, 8
	retq
.Ltmp41:
.Lfunc_end3:
	.size	get_command_arg, .Lfunc_end3-get_command_arg
	.cfi_endproc
                                        # -- End function
	.type	.L.str,@object                  # @.str
	.section	.rodata.str1.1,"aMS",@progbits,1
.L.str:
	.asciz	"malloc"
	.size	.L.str, 7

	.type	.L.str.1,@object                # @.str.1
.L.str.1:
	.asciz	"arg_array"
	.size	.L.str.1, 10

	.file	2 "/mnt/nfs/homes/cboukhal/42/minishell" "src/parsing/../../include/minishell.h"
	.file	3 "/usr/include" "dirent.h"
	.file	4 "/usr/include" "signal.h"
	.file	5 "/usr/include/x86_64-linux-gnu/bits" "sigaction.h"
	.file	6 "/usr/include/x86_64-linux-gnu/bits/types" "siginfo_t.h"
	.file	7 "/usr/include/x86_64-linux-gnu/bits" "types.h"
	.file	8 "/usr/include/x86_64-linux-gnu/bits/types" "__sigval_t.h"
	.file	9 "/usr/include/x86_64-linux-gnu/bits/types" "__sigset_t.h"
	.file	10 "/usr/include/x86_64-linux-gnu/bits" "struct_stat.h"
	.file	11 "/usr/include/x86_64-linux-gnu/bits/types" "struct_timespec.h"
	.file	12 "/usr/include/x86_64-linux-gnu/bits" "termios.h"
	.file	13 "/usr/include/x86_64-linux-gnu/bits" "termios-struct.h"
	.section	".note.GNU-stack","",@progbits
	.addrsig
	.addrsig_sym get_argument_nbr
	.addrsig_sym extract_argument
	.addrsig_sym ft_strlen
	.addrsig_sym malloc
	.addrsig_sym perror
	.addrsig_sym manage_expansion