	.text
	.file	"command_expan_value.c"
	.globl	get_expansion_value             # -- Begin function get_expansion_value
	.p2align	4, 0x90
	.type	get_expansion_value,@function
get_expansion_value:                    # @get_expansion_value
.Lfunc_begin0:
	.file	1 "/mnt/nfs/homes/cboukhal/42/minishell" "src/parsing/command_expan_value.c"
	.loc	1 16 0                          # src/parsing/command_expan_value.c:16:0
	.cfi_startproc
# %bb.0:
	pushq	%rbp
	.cfi_def_cfa_offset 16
	.cfi_offset %rbp, -16
	movq	%rsp, %rbp
	.cfi_def_cfa_register %rbp
	subq	$48, %rsp
	movq	%rdi, -8(%rbp)
	movq	%rsi, -16(%rbp)
.Ltmp0:
	.loc	1 19 8 prologue_end             # src/parsing/command_expan_value.c:19:8
	movq	$0, -24(%rbp)
.LBB0_1:                                # =>This Inner Loop Header: Depth=1
	.loc	1 20 2                          # src/parsing/command_expan_value.c:20:2
	cmpq	$0, -8(%rbp)
	je	.LBB0_5
# %bb.2:                                #   in Loop: Header=BB0_1 Depth=1
.Ltmp1:
	.loc	1 22 18                         # src/parsing/command_expan_value.c:22:18
	movq	-16(%rbp), %rax
	movq	%rax, -40(%rbp)                 # 8-byte Spill
	.loc	1 22 24 is_stmt 0               # src/parsing/command_expan_value.c:22:24
	movq	-8(%rbp), %rax
	.loc	1 22 29                         # src/parsing/command_expan_value.c:22:29
	movq	(%rax), %rax
	movq	%rax, -32(%rbp)                 # 8-byte Spill
	.loc	1 22 45                         # src/parsing/command_expan_value.c:22:45
	movq	-16(%rbp), %rdi
	.loc	1 22 35                         # src/parsing/command_expan_value.c:22:35
	callq	ft_strlen
	movq	-40(%rbp), %rdi                 # 8-byte Reload
	movq	-32(%rbp), %rsi                 # 8-byte Reload
	movq	%rax, %rdx
	.loc	1 22 7                          # src/parsing/command_expan_value.c:22:7
	callq	ft_strncmp
	.loc	1 22 52                         # src/parsing/command_expan_value.c:22:52
	cmpl	$0, %eax
.Ltmp2:
	.loc	1 22 7                          # src/parsing/command_expan_value.c:22:7
	jne	.LBB0_4
# %bb.3:                                #   in Loop: Header=BB0_1 Depth=1
.Ltmp3:
	.loc	1 23 22 is_stmt 1               # src/parsing/command_expan_value.c:23:22
	movq	-8(%rbp), %rax
	.loc	1 23 27 is_stmt 0               # src/parsing/command_expan_value.c:23:27
	movq	8(%rax), %rdi
	.loc	1 23 12                         # src/parsing/command_expan_value.c:23:12
	callq	ft_strdup
	.loc	1 23 10                         # src/parsing/command_expan_value.c:23:10
	movq	%rax, -24(%rbp)
.Ltmp4:
.LBB0_4:                                #   in Loop: Header=BB0_1 Depth=1
	.loc	1 24 9 is_stmt 1                # src/parsing/command_expan_value.c:24:9
	movq	-8(%rbp), %rax
	.loc	1 24 14 is_stmt 0               # src/parsing/command_expan_value.c:24:14
	movq	16(%rax), %rax
	.loc	1 24 7                          # src/parsing/command_expan_value.c:24:7
	movq	%rax, -8(%rbp)
.Ltmp5:
	.loc	1 20 2 is_stmt 1                # src/parsing/command_expan_value.c:20:2
	jmp	.LBB0_1
.LBB0_5:
	.loc	1 26 10                         # src/parsing/command_expan_value.c:26:10
	movq	-24(%rbp), %rax
	.loc	1 26 2 is_stmt 0                # src/parsing/command_expan_value.c:26:2
	addq	$48, %rsp
	popq	%rbp
	.cfi_def_cfa %rsp, 8
	retq
.Ltmp6:
.Lfunc_end0:
	.size	get_expansion_value, .Lfunc_end0-get_expansion_value
	.cfi_endproc
                                        # -- End function
	.globl	put_expansion_value             # -- Begin function put_expansion_value
	.p2align	4, 0x90
	.type	put_expansion_value,@function
put_expansion_value:                    # @put_expansion_value
.Lfunc_begin1:
	.loc	1 30 0 is_stmt 1                # src/parsing/command_expan_value.c:30:0
	.cfi_startproc
# %bb.0:
	pushq	%rbp
	.cfi_def_cfa_offset 16
	.cfi_offset %rbp, -16
	movq	%rsp, %rbp
	.cfi_def_cfa_register %rbp
	movq	%rdi, -8(%rbp)
	movq	%rsi, -16(%rbp)
	movl	%edx, -20(%rbp)
.Ltmp7:
	.loc	1 33 4 prologue_end             # src/parsing/command_expan_value.c:33:4
	movl	$0, -24(%rbp)
.LBB1_1:                                # =>This Inner Loop Header: Depth=1
	.loc	1 34 9                          # src/parsing/command_expan_value.c:34:9
	movq	-16(%rbp), %rax
	movslq	-24(%rbp), %rcx
	.loc	1 34 2 is_stmt 0                # src/parsing/command_expan_value.c:34:2
	cmpb	$0, (%rax,%rcx)
	je	.LBB1_3
# %bb.2:                                #   in Loop: Header=BB1_1 Depth=1
.Ltmp8:
	.loc	1 36 27 is_stmt 1               # src/parsing/command_expan_value.c:36:27
	movq	-16(%rbp), %rax
	movslq	-24(%rbp), %rcx
	movb	(%rax,%rcx), %dl
	.loc	1 36 5 is_stmt 0                # src/parsing/command_expan_value.c:36:5
	movq	-8(%rbp), %rax
	.loc	1 36 4                          # src/parsing/command_expan_value.c:36:4
	movq	(%rax), %rax
	.loc	1 36 3                          # src/parsing/command_expan_value.c:36:3
	movslq	-20(%rbp), %rcx
	.loc	1 36 25                         # src/parsing/command_expan_value.c:36:25
	movb	%dl, (%rax,%rcx)
	.loc	1 37 4 is_stmt 1                # src/parsing/command_expan_value.c:37:4
	movl	-24(%rbp), %eax
	addl	$1, %eax
	movl	%eax, -24(%rbp)
	.loc	1 38 4                          # src/parsing/command_expan_value.c:38:4
	movl	-20(%rbp), %eax
	addl	$1, %eax
	movl	%eax, -20(%rbp)
.Ltmp9:
	.loc	1 34 2                          # src/parsing/command_expan_value.c:34:2
	jmp	.LBB1_1
.LBB1_3:
	.loc	1 40 10                         # src/parsing/command_expan_value.c:40:10
	movl	-20(%rbp), %eax
	.loc	1 40 2 is_stmt 0                # src/parsing/command_expan_value.c:40:2
	popq	%rbp
	.cfi_def_cfa %rsp, 8
	retq
.Ltmp10:
.Lfunc_end1:
	.size	put_expansion_value, .Lfunc_end1-put_expansion_value
	.cfi_endproc
                                        # -- End function
	.globl	replace_expansion_name_by_value # -- Begin function replace_expansion_name_by_value
	.p2align	4, 0x90
	.type	replace_expansion_name_by_value,@function
replace_expansion_name_by_value:        # @replace_expansion_name_by_value
.Lfunc_begin2:
	.loc	1 45 0 is_stmt 1                # src/parsing/command_expan_value.c:45:0
	.cfi_startproc
# %bb.0:
	pushq	%rbp
	.cfi_def_cfa_offset 16
	.cfi_offset %rbp, -16
	movq	%rsp, %rbp
	.cfi_def_cfa_register %rbp
	subq	$64, %rsp
	movq	%rdi, -8(%rbp)
	movq	%rsi, -16(%rbp)
	movq	%rdx, -24(%rbp)
	movq	%rcx, -32(%rbp)
.Ltmp11:
	.loc	1 49 4 prologue_end             # src/parsing/command_expan_value.c:49:4
	movq	$0, -48(%rbp)
	.loc	1 50 4                          # src/parsing/command_expan_value.c:50:4
	movl	$0, -36(%rbp)
	.loc	1 51 17                         # src/parsing/command_expan_value.c:51:17
	movq	-8(%rbp), %rsi
	.loc	1 51 2 is_stmt 0                # src/parsing/command_expan_value.c:51:2
	movabsq	$.L.str, %rdi
	movb	$0, %al
	callq	printf
.LBB2_1:                                # =>This Inner Loop Header: Depth=1
	.loc	1 52 9 is_stmt 1                # src/parsing/command_expan_value.c:52:9
	movq	-8(%rbp), %rax
	movslq	-36(%rbp), %rcx
	.loc	1 52 2 is_stmt 0                # src/parsing/command_expan_value.c:52:2
	cmpb	$0, (%rax,%rcx)
	je	.LBB2_5
# %bb.2:                                #   in Loop: Header=BB2_1 Depth=1
.Ltmp12:
	.loc	1 54 25 is_stmt 1               # src/parsing/command_expan_value.c:54:25
	movq	-8(%rbp), %rdi
	.loc	1 54 33 is_stmt 0               # src/parsing/command_expan_value.c:54:33
	movq	-32(%rbp), %rsi
	.loc	1 54 39                         # src/parsing/command_expan_value.c:54:39
	movl	-36(%rbp), %edx
	.loc	1 54 7                          # src/parsing/command_expan_value.c:54:7
	callq	is_expansion_name
.Ltmp13:
	.loc	1 54 7                          # src/parsing/command_expan_value.c:54:7
	testb	$1, %al
	jne	.LBB2_3
	jmp	.LBB2_4
.LBB2_3:
.Ltmp14:
	.loc	1 56 31 is_stmt 1               # src/parsing/command_expan_value.c:56:31
	movq	-16(%rbp), %rdi
	.loc	1 56 49 is_stmt 0               # src/parsing/command_expan_value.c:56:49
	movq	-24(%rbp), %rsi
	.loc	1 56 56                         # src/parsing/command_expan_value.c:56:56
	movq	-48(%rbp), %rax
	movl	%eax, %edx
	.loc	1 56 8                          # src/parsing/command_expan_value.c:56:8
	callq	put_expansion_value
	cltq
	.loc	1 56 6                          # src/parsing/command_expan_value.c:56:6
	movq	%rax, -48(%rbp)
	.loc	1 57 21 is_stmt 1               # src/parsing/command_expan_value.c:57:21
	movq	-16(%rbp), %rax
	.loc	1 57 20 is_stmt 0               # src/parsing/command_expan_value.c:57:20
	movq	(%rax), %rsi
	.loc	1 57 4                          # src/parsing/command_expan_value.c:57:4
	movabsq	$.L.str, %rdi
	movb	$0, %al
	callq	printf
	.loc	1 58 4 is_stmt 1                # src/parsing/command_expan_value.c:58:4
	jmp	.LBB2_5
.Ltmp15:
.LBB2_4:                                #   in Loop: Header=BB2_1 Depth=1
	.loc	1 60 27                         # src/parsing/command_expan_value.c:60:27
	movq	-8(%rbp), %rax
	movslq	-36(%rbp), %rcx
	movb	(%rax,%rcx), %dl
	.loc	1 60 5 is_stmt 0                # src/parsing/command_expan_value.c:60:5
	movq	-16(%rbp), %rax
	.loc	1 60 4                          # src/parsing/command_expan_value.c:60:4
	movq	(%rax), %rax
	.loc	1 60 22                         # src/parsing/command_expan_value.c:60:22
	movq	-48(%rbp), %rcx
	.loc	1 60 25                         # src/parsing/command_expan_value.c:60:25
	movb	%dl, (%rax,%rcx)
	.loc	1 61 4 is_stmt 1                # src/parsing/command_expan_value.c:61:4
	movl	-36(%rbp), %eax
	addl	$1, %eax
	movl	%eax, -36(%rbp)
	.loc	1 62 4                          # src/parsing/command_expan_value.c:62:4
	movq	-48(%rbp), %rax
	addq	$1, %rax
	movq	%rax, -48(%rbp)
.Ltmp16:
	.loc	1 52 2                          # src/parsing/command_expan_value.c:52:2
	jmp	.LBB2_1
.LBB2_5:
	.loc	1 65 2                          # src/parsing/command_expan_value.c:65:2
	jmp	.LBB2_6
.LBB2_6:                                # =>This Inner Loop Header: Depth=1
	.loc	1 65 9 is_stmt 0                # src/parsing/command_expan_value.c:65:9
	movq	-8(%rbp), %rax
	movslq	-36(%rbp), %rcx
	movsbl	(%rax,%rcx), %ecx
	xorl	%eax, %eax
                                        # kill: def $al killed $al killed $eax
	cmpl	$0, %ecx
	movb	%al, -49(%rbp)                  # 1-byte Spill
	.loc	1 65 19                         # src/parsing/command_expan_value.c:65:19
	je	.LBB2_8
# %bb.7:                                #   in Loop: Header=BB2_6 Depth=1
	.loc	1 65 38                         # src/parsing/command_expan_value.c:65:38
	movq	-32(%rbp), %rdi
	.loc	1 65 23                         # src/parsing/command_expan_value.c:65:23
	callq	is_exit_status
	.loc	1 65 22                         # src/parsing/command_expan_value.c:65:22
	xorb	$-1, %al
	movb	%al, -49(%rbp)                  # 1-byte Spill
.LBB2_8:                                #   in Loop: Header=BB2_6 Depth=1
	.loc	1 0 22                          # src/parsing/command_expan_value.c:0:22
	movb	-49(%rbp), %al                  # 1-byte Reload
	.loc	1 65 2                          # src/parsing/command_expan_value.c:65:2
	testb	$1, %al
	jne	.LBB2_9
	jmp	.LBB2_10
.LBB2_9:                                #   in Loop: Header=BB2_6 Depth=1
.Ltmp17:
	.loc	1 67 27 is_stmt 1               # src/parsing/command_expan_value.c:67:27
	movq	-8(%rbp), %rax
	movslq	-36(%rbp), %rcx
	movb	(%rax,%rcx), %dl
	.loc	1 67 5 is_stmt 0                # src/parsing/command_expan_value.c:67:5
	movq	-16(%rbp), %rax
	.loc	1 67 4                          # src/parsing/command_expan_value.c:67:4
	movq	(%rax), %rax
	.loc	1 67 22                         # src/parsing/command_expan_value.c:67:22
	movq	-48(%rbp), %rcx
	.loc	1 67 25                         # src/parsing/command_expan_value.c:67:25
	movb	%dl, (%rax,%rcx)
	.loc	1 68 4 is_stmt 1                # src/parsing/command_expan_value.c:68:4
	movl	-36(%rbp), %eax
	addl	$1, %eax
	movl	%eax, -36(%rbp)
	.loc	1 69 4                          # src/parsing/command_expan_value.c:69:4
	movq	-48(%rbp), %rax
	addq	$1, %rax
	movq	%rax, -48(%rbp)
.Ltmp18:
	.loc	1 65 2                          # src/parsing/command_expan_value.c:65:2
	jmp	.LBB2_6
.LBB2_10:
	.loc	1 71 4                          # src/parsing/command_expan_value.c:71:4
	movq	-16(%rbp), %rax
	.loc	1 71 3 is_stmt 0                # src/parsing/command_expan_value.c:71:3
	movq	(%rax), %rax
	.loc	1 71 21                         # src/parsing/command_expan_value.c:71:21
	movq	-48(%rbp), %rcx
	.loc	1 71 24                         # src/parsing/command_expan_value.c:71:24
	movb	$0, (%rax,%rcx)
	.loc	1 72 19 is_stmt 1               # src/parsing/command_expan_value.c:72:19
	movq	-16(%rbp), %rax
	.loc	1 72 18 is_stmt 0               # src/parsing/command_expan_value.c:72:18
	movq	(%rax), %rsi
	.loc	1 72 2                          # src/parsing/command_expan_value.c:72:2
	movabsq	$.L.str, %rdi
	movb	$0, %al
	callq	printf
	.loc	1 73 1 is_stmt 1                # src/parsing/command_expan_value.c:73:1
	addq	$64, %rsp
	popq	%rbp
	.cfi_def_cfa %rsp, 8
	retq
.Ltmp19:
.Lfunc_end2:
	.size	replace_expansion_name_by_value, .Lfunc_end2-replace_expansion_name_by_value
	.cfi_endproc
                                        # -- End function
	.type	.L.str,@object                  # @.str
	.section	.rodata.str1.1,"aMS",@progbits,1
.L.str:
	.asciz	"%s\n"
	.size	.L.str, 4

	.file	2 "/mnt/nfs/homes/cboukhal/42/minishell" "src/parsing/../../include/minishell.h"
	.file	3 "/usr/lib/llvm-12/lib/clang/12.0.1/include" "stddef.h"
	.section	".note.GNU-stack","",@progbits
	.addrsig
	.addrsig_sym ft_strncmp
	.addrsig_sym ft_strlen
	.addrsig_sym ft_strdup
	.addrsig_sym put_expansion_value
	.addrsig_sym printf
	.addrsig_sym is_expansion_name
	.addrsig_sym is_exit_status