	.text
	.file	"command_expansion.c"
	.globl	get_expansion_value             # -- Begin function get_expansion_value
	.p2align	4, 0x90
	.type	get_expansion_value,@function
get_expansion_value:                    # @get_expansion_value
.Lfunc_begin0:
	.file	1 "/mnt/nfs/homes/cboukhal/minishell" "src/parsing/command_expansion.c"
	.loc	1 16 0                          # src/parsing/command_expansion.c:16:0
	.cfi_startproc
# %bb.0:
	pushq	%rbp
	.cfi_def_cfa_offset 16
	.cfi_offset %rbp, -16
	movq	%rsp, %rbp
	.cfi_def_cfa_register %rbp
	subq	$48, %rsp
	movq	%rdi, -8(%rbp)
	movq	%rsi, -16(%rbp)
.Ltmp0:
	.loc	1 19 8 prologue_end             # src/parsing/command_expansion.c:19:8
	movq	$0, -24(%rbp)
.LBB0_1:                                # =>This Inner Loop Header: Depth=1
	.loc	1 20 2                          # src/parsing/command_expansion.c:20:2
	cmpq	$0, -8(%rbp)
	je	.LBB0_5
# %bb.2:                                #   in Loop: Header=BB0_1 Depth=1
.Ltmp1:
	.loc	1 22 18                         # src/parsing/command_expansion.c:22:18
	movq	-16(%rbp), %rax
	movq	%rax, -40(%rbp)                 # 8-byte Spill
	.loc	1 22 24 is_stmt 0               # src/parsing/command_expansion.c:22:24
	movq	-8(%rbp), %rax
	.loc	1 22 29                         # src/parsing/command_expansion.c:22:29
	movq	(%rax), %rax
	movq	%rax, -32(%rbp)                 # 8-byte Spill
	.loc	1 22 45                         # src/parsing/command_expansion.c:22:45
	movq	-16(%rbp), %rdi
	.loc	1 22 35                         # src/parsing/command_expansion.c:22:35
	callq	ft_strlen
	movq	-40(%rbp), %rdi                 # 8-byte Reload
	movq	-32(%rbp), %rsi                 # 8-byte Reload
	movq	%rax, %rdx
	.loc	1 22 7                          # src/parsing/command_expansion.c:22:7
	callq	ft_strncmp
	.loc	1 22 52                         # src/parsing/command_expansion.c:22:52
	cmpl	$0, %eax
.Ltmp2:
	.loc	1 22 7                          # src/parsing/command_expansion.c:22:7
	jne	.LBB0_4
# %bb.3:                                #   in Loop: Header=BB0_1 Depth=1
.Ltmp3:
	.loc	1 23 22 is_stmt 1               # src/parsing/command_expansion.c:23:22
	movq	-8(%rbp), %rax
	.loc	1 23 27 is_stmt 0               # src/parsing/command_expansion.c:23:27
	movq	8(%rax), %rdi
	.loc	1 23 12                         # src/parsing/command_expansion.c:23:12
	callq	ft_strdup
	.loc	1 23 10                         # src/parsing/command_expansion.c:23:10
	movq	%rax, -24(%rbp)
.Ltmp4:
.LBB0_4:                                #   in Loop: Header=BB0_1 Depth=1
	.loc	1 24 9 is_stmt 1                # src/parsing/command_expansion.c:24:9
	movq	-8(%rbp), %rax
	.loc	1 24 14 is_stmt 0               # src/parsing/command_expansion.c:24:14
	movq	16(%rax), %rax
	.loc	1 24 7                          # src/parsing/command_expansion.c:24:7
	movq	%rax, -8(%rbp)
.Ltmp5:
	.loc	1 20 2 is_stmt 1                # src/parsing/command_expansion.c:20:2
	jmp	.LBB0_1
.LBB0_5:
	.loc	1 26 10                         # src/parsing/command_expansion.c:26:10
	movq	-24(%rbp), %rax
	.loc	1 26 2 is_stmt 0                # src/parsing/command_expansion.c:26:2
	addq	$48, %rsp
	popq	%rbp
	.cfi_def_cfa %rsp, 8
	retq
.Ltmp6:
.Lfunc_end0:
	.size	get_expansion_value, .Lfunc_end0-get_expansion_value
	.cfi_endproc
                                        # -- End function
	.globl	expand_variable_in_lexeme       # -- Begin function expand_variable_in_lexeme
	.p2align	4, 0x90
	.type	expand_variable_in_lexeme,@function
expand_variable_in_lexeme:              # @expand_variable_in_lexeme
.Lfunc_begin1:
	.loc	1 31 0 is_stmt 1                # src/parsing/command_expansion.c:31:0
	.cfi_startproc
# %bb.0:
	pushq	%rbp
	.cfi_def_cfa_offset 16
	.cfi_offset %rbp, -16
	movq	%rsp, %rbp
	.cfi_def_cfa_register %rbp
	subq	$64, %rsp
	movq	%rdi, -16(%rbp)
	movq	%rsi, -24(%rbp)
	movq	%rdx, -32(%rbp)
	movq	%rcx, -40(%rbp)
.Ltmp7:
	.loc	1 34 4 prologue_end             # src/parsing/command_expansion.c:34:4
	movq	$0, -48(%rbp)
.LBB1_1:                                # =>This Inner Loop Header: Depth=1
	.loc	1 35 10                         # src/parsing/command_expansion.c:35:10
	movq	-16(%rbp), %rax
	.loc	1 35 2 is_stmt 0                # src/parsing/command_expansion.c:35:2
	cmpb	$0, (%rax)
	je	.LBB1_9
# %bb.2:                                #   in Loop: Header=BB1_1 Depth=1
.Ltmp8:
	.loc	1 37 8 is_stmt 1                # src/parsing/command_expansion.c:37:8
	movq	-16(%rbp), %rax
	.loc	1 37 7 is_stmt 0                # src/parsing/command_expansion.c:37:7
	movsbl	(%rax), %eax
	.loc	1 37 15                         # src/parsing/command_expansion.c:37:15
	cmpl	$36, %eax
	.loc	1 37 22                         # src/parsing/command_expansion.c:37:22
	jne	.LBB1_8
# %bb.3:                                #   in Loop: Header=BB1_1 Depth=1
	.loc	1 37 36                         # src/parsing/command_expansion.c:37:36
	movq	-32(%rbp), %rax
	movq	%rax, -64(%rbp)                 # 8-byte Spill
	.loc	1 38 8 is_stmt 1                # src/parsing/command_expansion.c:38:8
	movq	-16(%rbp), %rax
	.loc	1 38 16 is_stmt 0               # src/parsing/command_expansion.c:38:16
	addq	$1, %rax
	movq	%rax, -56(%rbp)                 # 8-byte Spill
	.loc	1 38 31                         # src/parsing/command_expansion.c:38:31
	movq	-32(%rbp), %rdi
	.loc	1 38 21                         # src/parsing/command_expansion.c:38:21
	callq	ft_strlen
	movq	-64(%rbp), %rdi                 # 8-byte Reload
	movq	-56(%rbp), %rsi                 # 8-byte Reload
	movq	%rax, %rdx
	.loc	1 37 25 is_stmt 1               # src/parsing/command_expansion.c:37:25
	callq	ft_strncmp
	.loc	1 38 38                         # src/parsing/command_expansion.c:38:38
	cmpl	$0, %eax
.Ltmp9:
	.loc	1 37 7                          # src/parsing/command_expansion.c:37:7
	jne	.LBB1_8
# %bb.4:
.Ltmp10:
	.loc	1 40 4                          # src/parsing/command_expansion.c:40:4
	jmp	.LBB1_5
.LBB1_5:                                # =>This Inner Loop Header: Depth=1
	.loc	1 40 12 is_stmt 0               # src/parsing/command_expansion.c:40:12
	movq	-40(%rbp), %rax
	.loc	1 40 4                          # src/parsing/command_expansion.c:40:4
	cmpb	$0, (%rax)
	je	.LBB1_7
# %bb.6:                                #   in Loop: Header=BB1_5 Depth=1
.Ltmp11:
	.loc	1 42 30 is_stmt 1               # src/parsing/command_expansion.c:42:30
	movq	-40(%rbp), %rax
	.loc	1 42 29 is_stmt 0               # src/parsing/command_expansion.c:42:29
	movb	(%rax), %dl
	.loc	1 42 7                          # src/parsing/command_expansion.c:42:7
	movq	-24(%rbp), %rax
	.loc	1 42 6                          # src/parsing/command_expansion.c:42:6
	movq	(%rax), %rax
	.loc	1 42 24                         # src/parsing/command_expansion.c:42:24
	movq	-48(%rbp), %rcx
	.loc	1 42 27                         # src/parsing/command_expansion.c:42:27
	movb	%dl, (%rax,%rcx)
	.loc	1 43 10 is_stmt 1               # src/parsing/command_expansion.c:43:10
	movq	-40(%rbp), %rax
	addq	$1, %rax
	movq	%rax, -40(%rbp)
	.loc	1 44 6                          # src/parsing/command_expansion.c:44:6
	movq	-48(%rbp), %rax
	addq	$1, %rax
	movq	%rax, -48(%rbp)
.Ltmp12:
	.loc	1 40 4                          # src/parsing/command_expansion.c:40:4
	jmp	.LBB1_5
.LBB1_7:
	.loc	1 46 12                         # src/parsing/command_expansion.c:46:12
	movq	-48(%rbp), %rax
	.loc	1 46 4 is_stmt 0                # src/parsing/command_expansion.c:46:4
	movq	%rax, -8(%rbp)
	jmp	.LBB1_10
.Ltmp13:
.LBB1_8:                                #   in Loop: Header=BB1_1 Depth=1
	.loc	1 48 28 is_stmt 1               # src/parsing/command_expansion.c:48:28
	movq	-16(%rbp), %rax
	.loc	1 48 27 is_stmt 0               # src/parsing/command_expansion.c:48:27
	movb	(%rax), %dl
	.loc	1 48 5                          # src/parsing/command_expansion.c:48:5
	movq	-24(%rbp), %rax
	.loc	1 48 4                          # src/parsing/command_expansion.c:48:4
	movq	(%rax), %rax
	.loc	1 48 22                         # src/parsing/command_expansion.c:48:22
	movq	-48(%rbp), %rcx
	.loc	1 48 25                         # src/parsing/command_expansion.c:48:25
	movb	%dl, (%rax,%rcx)
	.loc	1 49 9 is_stmt 1                # src/parsing/command_expansion.c:49:9
	movq	-16(%rbp), %rax
	addq	$1, %rax
	movq	%rax, -16(%rbp)
	.loc	1 50 4                          # src/parsing/command_expansion.c:50:4
	movq	-48(%rbp), %rax
	addq	$1, %rax
	movq	%rax, -48(%rbp)
.Ltmp14:
	.loc	1 35 2                          # src/parsing/command_expansion.c:35:2
	jmp	.LBB1_1
.LBB1_9:
	.loc	1 52 10                         # src/parsing/command_expansion.c:52:10
	movq	-48(%rbp), %rax
	.loc	1 52 2 is_stmt 0                # src/parsing/command_expansion.c:52:2
	movq	%rax, -8(%rbp)
.LBB1_10:
	.loc	1 53 1 is_stmt 1                # src/parsing/command_expansion.c:53:1
	movq	-8(%rbp), %rax
	addq	$64, %rsp
	popq	%rbp
	.cfi_def_cfa %rsp, 8
	retq
.Ltmp15:
.Lfunc_end1:
	.size	expand_variable_in_lexeme, .Lfunc_end1-expand_variable_in_lexeme
	.cfi_endproc
                                        # -- End function
	.globl	replace_expansion_name_by_value # -- Begin function replace_expansion_name_by_value
	.p2align	4, 0x90
	.type	replace_expansion_name_by_value,@function
replace_expansion_name_by_value:        # @replace_expansion_name_by_value
.Lfunc_begin2:
	.loc	1 57 0                          # src/parsing/command_expansion.c:57:0
	.cfi_startproc
# %bb.0:
	pushq	%rbp
	.cfi_def_cfa_offset 16
	.cfi_offset %rbp, -16
	movq	%rsp, %rbp
	.cfi_def_cfa_register %rbp
	subq	$64, %rsp
	movq	%rdi, -8(%rbp)
	movq	%rsi, -16(%rbp)
	movq	%rdx, -24(%rbp)
	movq	%rcx, -32(%rbp)
.Ltmp16:
	.loc	1 77 4 prologue_end             # src/parsing/command_expansion.c:77:4
	movq	$0, -40(%rbp)
	.loc	1 78 32                         # src/parsing/command_expansion.c:78:32
	movq	-8(%rbp), %rdi
	.loc	1 78 40 is_stmt 0               # src/parsing/command_expansion.c:78:40
	movq	-16(%rbp), %rsi
	.loc	1 78 57                         # src/parsing/command_expansion.c:78:57
	movq	-32(%rbp), %rdx
	.loc	1 78 63                         # src/parsing/command_expansion.c:78:63
	movq	-24(%rbp), %rcx
	.loc	1 78 6                          # src/parsing/command_expansion.c:78:6
	callq	expand_variable_in_lexeme
	.loc	1 78 4                          # src/parsing/command_expansion.c:78:4
	movq	%rax, -40(%rbp)
.LBB2_1:                                # =>This Inner Loop Header: Depth=1
	.loc	1 79 10 is_stmt 1               # src/parsing/command_expansion.c:79:10
	movq	-8(%rbp), %rax
	.loc	1 79 9 is_stmt 0                # src/parsing/command_expansion.c:79:9
	movsbl	(%rax), %ecx
	xorl	%eax, %eax
                                        # kill: def $al killed $al killed $eax
	cmpl	$0, %ecx
	movb	%al, -41(%rbp)                  # 1-byte Spill
	.loc	1 79 17                         # src/parsing/command_expansion.c:79:17
	je	.LBB2_4
# %bb.2:                                #   in Loop: Header=BB2_1 Depth=1
	.loc	1 79 20                         # src/parsing/command_expansion.c:79:20
	movq	-40(%rbp), %rax
	movq	%rax, -56(%rbp)                 # 8-byte Spill
	.loc	1 79 34                         # src/parsing/command_expansion.c:79:34
	movq	-8(%rbp), %rdi
	.loc	1 79 24                         # src/parsing/command_expansion.c:79:24
	callq	ft_strlen
	movq	-56(%rbp), %rcx                 # 8-byte Reload
	movq	%rax, %rdx
	.loc	1 79 22                         # src/parsing/command_expansion.c:79:22
	xorl	%eax, %eax
                                        # kill: def $al killed $al killed $eax
	cmpq	%rdx, %rcx
	movb	%al, -41(%rbp)                  # 1-byte Spill
	.loc	1 79 42                         # src/parsing/command_expansion.c:79:42
	jae	.LBB2_4
# %bb.3:                                #   in Loop: Header=BB2_1 Depth=1
	.loc	1 79 61                         # src/parsing/command_expansion.c:79:61
	movq	-32(%rbp), %rdi
	.loc	1 79 46                         # src/parsing/command_expansion.c:79:46
	callq	is_exit_status
	.loc	1 79 45                         # src/parsing/command_expansion.c:79:45
	xorb	$-1, %al
	movb	%al, -41(%rbp)                  # 1-byte Spill
.LBB2_4:                                #   in Loop: Header=BB2_1 Depth=1
	.loc	1 0 45                          # src/parsing/command_expansion.c:0:45
	movb	-41(%rbp), %al                  # 1-byte Reload
	.loc	1 79 2                          # src/parsing/command_expansion.c:79:2
	testb	$1, %al
	jne	.LBB2_5
	jmp	.LBB2_6
.LBB2_5:                                #   in Loop: Header=BB2_1 Depth=1
.Ltmp17:
	.loc	1 81 28 is_stmt 1               # src/parsing/command_expansion.c:81:28
	movq	-8(%rbp), %rax
	.loc	1 81 27 is_stmt 0               # src/parsing/command_expansion.c:81:27
	movb	(%rax), %dl
	.loc	1 81 5                          # src/parsing/command_expansion.c:81:5
	movq	-16(%rbp), %rax
	.loc	1 81 4                          # src/parsing/command_expansion.c:81:4
	movq	(%rax), %rax
	.loc	1 81 22                         # src/parsing/command_expansion.c:81:22
	movq	-40(%rbp), %rcx
	.loc	1 81 25                         # src/parsing/command_expansion.c:81:25
	movb	%dl, (%rax,%rcx)
	.loc	1 82 9 is_stmt 1                # src/parsing/command_expansion.c:82:9
	movq	-8(%rbp), %rax
	addq	$1, %rax
	movq	%rax, -8(%rbp)
	.loc	1 83 4                          # src/parsing/command_expansion.c:83:4
	movq	-40(%rbp), %rax
	addq	$1, %rax
	movq	%rax, -40(%rbp)
.Ltmp18:
	.loc	1 79 2                          # src/parsing/command_expansion.c:79:2
	jmp	.LBB2_1
.LBB2_6:
	.loc	1 85 4                          # src/parsing/command_expansion.c:85:4
	movq	-16(%rbp), %rax
	.loc	1 85 3 is_stmt 0                # src/parsing/command_expansion.c:85:3
	movq	(%rax), %rax
	.loc	1 85 21                         # src/parsing/command_expansion.c:85:21
	movq	-40(%rbp), %rcx
	.loc	1 85 24                         # src/parsing/command_expansion.c:85:24
	movb	$0, (%rax,%rcx)
	.loc	1 86 1 is_stmt 1                # src/parsing/command_expansion.c:86:1
	addq	$64, %rsp
	popq	%rbp
	.cfi_def_cfa %rsp, 8
	retq
.Ltmp19:
.Lfunc_end2:
	.size	replace_expansion_name_by_value, .Lfunc_end2-replace_expansion_name_by_value
	.cfi_endproc
                                        # -- End function
	.globl	replace_variable_in_lexeme      # -- Begin function replace_variable_in_lexeme
	.p2align	4, 0x90
	.type	replace_variable_in_lexeme,@function
replace_variable_in_lexeme:             # @replace_variable_in_lexeme
.Lfunc_begin3:
	.loc	1 90 0                          # src/parsing/command_expansion.c:90:0
	.cfi_startproc
# %bb.0:
	pushq	%rbp
	.cfi_def_cfa_offset 16
	.cfi_offset %rbp, -16
	movq	%rsp, %rbp
	.cfi_def_cfa_register %rbp
	subq	$64, %rsp
	movq	%rdi, -8(%rbp)
	movq	%rsi, -16(%rbp)
	movq	%rdx, -24(%rbp)
.Ltmp20:
	.loc	1 95 4 prologue_end             # src/parsing/command_expansion.c:95:4
	movl	$0, -28(%rbp)
	.loc	1 96 4                          # src/parsing/command_expansion.c:96:4
	movl	$0, -32(%rbp)
	.loc	1 97 6                          # src/parsing/command_expansion.c:97:6
	movl	$0, -36(%rbp)
.LBB3_1:                                # =>This Inner Loop Header: Depth=1
	.loc	1 98 9                          # src/parsing/command_expansion.c:98:9
	movq	-8(%rbp), %rax
	movslq	-32(%rbp), %rcx
	.loc	1 98 2 is_stmt 0                # src/parsing/command_expansion.c:98:2
	cmpb	$0, (%rax,%rcx)
	je	.LBB3_9
# %bb.2:                                #   in Loop: Header=BB3_1 Depth=1
.Ltmp21:
	.loc	1 100 7 is_stmt 1               # src/parsing/command_expansion.c:100:7
	movq	-8(%rbp), %rax
	movslq	-32(%rbp), %rcx
	movsbl	(%rax,%rcx), %eax
	.loc	1 100 17 is_stmt 0              # src/parsing/command_expansion.c:100:17
	cmpl	$36, %eax
	.loc	1 100 24                        # src/parsing/command_expansion.c:100:24
	jne	.LBB3_8
# %bb.3:                                #   in Loop: Header=BB3_1 Depth=1
	.loc	1 100 38                        # src/parsing/command_expansion.c:100:38
	movq	-24(%rbp), %rax
	movq	%rax, -56(%rbp)                 # 8-byte Spill
	.loc	1 100 45                        # src/parsing/command_expansion.c:100:45
	movq	-8(%rbp), %rax
	.loc	1 100 52                        # src/parsing/command_expansion.c:100:52
	movl	-32(%rbp), %ecx
	.loc	1 100 54                        # src/parsing/command_expansion.c:100:54
	addl	$1, %ecx
	.loc	1 100 45                        # src/parsing/command_expansion.c:100:45
	movslq	%ecx, %rcx
	addq	%rcx, %rax
	movq	%rax, -48(%rbp)                 # 8-byte Spill
	.loc	1 101 15 is_stmt 1              # src/parsing/command_expansion.c:101:15
	movq	-24(%rbp), %rdi
	.loc	1 101 5 is_stmt 0               # src/parsing/command_expansion.c:101:5
	callq	ft_strlen
	movq	-56(%rbp), %rdi                 # 8-byte Reload
	movq	-48(%rbp), %rsi                 # 8-byte Reload
	movq	%rax, %rdx
	.loc	1 100 27 is_stmt 1              # src/parsing/command_expansion.c:100:27
	callq	ft_strncmp
	.loc	1 101 22                        # src/parsing/command_expansion.c:101:22
	cmpl	$0, %eax
.Ltmp22:
	.loc	1 100 7                         # src/parsing/command_expansion.c:100:7
	jne	.LBB3_8
# %bb.4:
.Ltmp23:
	.loc	1 103 20                        # src/parsing/command_expansion.c:103:20
	movq	-24(%rbp), %rdi
	.loc	1 103 10 is_stmt 0              # src/parsing/command_expansion.c:103:10
	callq	ft_strlen
	.loc	1 103 28                        # src/parsing/command_expansion.c:103:28
	movslq	-32(%rbp), %rcx
	.loc	1 103 26                        # src/parsing/command_expansion.c:103:26
	addq	%rcx, %rax
	.loc	1 103 30                        # src/parsing/command_expansion.c:103:30
	addq	$1, %rax
                                        # kill: def $eax killed $eax killed $rax
	.loc	1 103 8                         # src/parsing/command_expansion.c:103:8
	movl	%eax, -36(%rbp)
.LBB3_5:                                # =>This Inner Loop Header: Depth=1
	.loc	1 104 11 is_stmt 1              # src/parsing/command_expansion.c:104:11
	movl	-32(%rbp), %eax
	.loc	1 104 13 is_stmt 0              # src/parsing/command_expansion.c:104:13
	cmpl	-36(%rbp), %eax
	.loc	1 104 4                         # src/parsing/command_expansion.c:104:4
	jge	.LBB3_7
# %bb.6:                                #   in Loop: Header=BB3_5 Depth=1
	.loc	1 105 6 is_stmt 1               # src/parsing/command_expansion.c:105:6
	movl	-32(%rbp), %eax
	addl	$1, %eax
	movl	%eax, -32(%rbp)
	.loc	1 104 4                         # src/parsing/command_expansion.c:104:4
	jmp	.LBB3_5
.LBB3_7:
	.loc	1 106 4                         # src/parsing/command_expansion.c:106:4
	jmp	.LBB3_9
.Ltmp24:
.LBB3_8:                                #   in Loop: Header=BB3_1 Depth=1
	.loc	1 108 29                        # src/parsing/command_expansion.c:108:29
	movq	-8(%rbp), %rax
	.loc	1 108 37 is_stmt 0              # src/parsing/command_expansion.c:108:37
	movl	-32(%rbp), %ecx
	movl	%ecx, %edx
	addl	$1, %edx
	movl	%edx, -32(%rbp)
	.loc	1 108 29                        # src/parsing/command_expansion.c:108:29
	movslq	%ecx, %rcx
	movb	(%rax,%rcx), %dl
	.loc	1 108 5                         # src/parsing/command_expansion.c:108:5
	movq	-16(%rbp), %rax
	.loc	1 108 4                         # src/parsing/command_expansion.c:108:4
	movq	(%rax), %rax
	.loc	1 108 23                        # src/parsing/command_expansion.c:108:23
	movl	-28(%rbp), %ecx
	movl	%ecx, %esi
	addl	$1, %esi
	movl	%esi, -28(%rbp)
	.loc	1 108 3                         # src/parsing/command_expansion.c:108:3
	movslq	%ecx, %rcx
	.loc	1 108 27                        # src/parsing/command_expansion.c:108:27
	movb	%dl, (%rax,%rcx)
.Ltmp25:
	.loc	1 98 2 is_stmt 1                # src/parsing/command_expansion.c:98:2
	jmp	.LBB3_1
.LBB3_9:
	.loc	1 110 2                         # src/parsing/command_expansion.c:110:2
	jmp	.LBB3_10
.LBB3_10:                               # =>This Inner Loop Header: Depth=1
	.loc	1 110 9 is_stmt 0               # src/parsing/command_expansion.c:110:9
	movq	-8(%rbp), %rax
	movslq	-32(%rbp), %rcx
	.loc	1 110 2                         # src/parsing/command_expansion.c:110:2
	cmpb	$0, (%rax,%rcx)
	je	.LBB3_12
# %bb.11:                               #   in Loop: Header=BB3_10 Depth=1
	.loc	1 111 29 is_stmt 1              # src/parsing/command_expansion.c:111:29
	movq	-8(%rbp), %rax
	.loc	1 111 37 is_stmt 0              # src/parsing/command_expansion.c:111:37
	movl	-32(%rbp), %ecx
	movl	%ecx, %edx
	addl	$1, %edx
	movl	%edx, -32(%rbp)
	.loc	1 111 29                        # src/parsing/command_expansion.c:111:29
	movslq	%ecx, %rcx
	movb	(%rax,%rcx), %dl
	.loc	1 111 5                         # src/parsing/command_expansion.c:111:5
	movq	-16(%rbp), %rax
	.loc	1 111 4                         # src/parsing/command_expansion.c:111:4
	movq	(%rax), %rax
	.loc	1 111 23                        # src/parsing/command_expansion.c:111:23
	movl	-28(%rbp), %ecx
	movl	%ecx, %esi
	addl	$1, %esi
	movl	%esi, -28(%rbp)
	.loc	1 111 3                         # src/parsing/command_expansion.c:111:3
	movslq	%ecx, %rcx
	.loc	1 111 27                        # src/parsing/command_expansion.c:111:27
	movb	%dl, (%rax,%rcx)
	.loc	1 110 2 is_stmt 1               # src/parsing/command_expansion.c:110:2
	jmp	.LBB3_10
.LBB3_12:
	.loc	1 112 4                         # src/parsing/command_expansion.c:112:4
	movq	-16(%rbp), %rax
	.loc	1 112 3 is_stmt 0               # src/parsing/command_expansion.c:112:3
	movq	(%rax), %rax
	.loc	1 112 2                         # src/parsing/command_expansion.c:112:2
	movslq	-28(%rbp), %rcx
	.loc	1 112 24                        # src/parsing/command_expansion.c:112:24
	movb	$0, (%rax,%rcx)
	.loc	1 113 1 is_stmt 1               # src/parsing/command_expansion.c:113:1
	addq	$64, %rsp
	popq	%rbp
	.cfi_def_cfa %rsp, 8
	retq
.Ltmp26:
.Lfunc_end3:
	.size	replace_variable_in_lexeme, .Lfunc_end3-replace_variable_in_lexeme
	.cfi_endproc
                                        # -- End function
	.globl	remove_expansion_name           # -- Begin function remove_expansion_name
	.p2align	4, 0x90
	.type	remove_expansion_name,@function
remove_expansion_name:                  # @remove_expansion_name
.Lfunc_begin4:
	.loc	1 116 0                         # src/parsing/command_expansion.c:116:0
	.cfi_startproc
# %bb.0:
	pushq	%rbp
	.cfi_def_cfa_offset 16
	.cfi_offset %rbp, -16
	movq	%rsp, %rbp
	.cfi_def_cfa_register %rbp
	subq	$32, %rsp
	movq	%rdi, -8(%rbp)
	movq	%rsi, -16(%rbp)
	movq	%rdx, -24(%rbp)
.Ltmp27:
	.loc	1 143 29 prologue_end           # src/parsing/command_expansion.c:143:29
	movq	-8(%rbp), %rdi
	.loc	1 143 37 is_stmt 0              # src/parsing/command_expansion.c:143:37
	movq	-16(%rbp), %rsi
	.loc	1 143 54                        # src/parsing/command_expansion.c:143:54
	movq	-24(%rbp), %rdx
	.loc	1 143 2                         # src/parsing/command_expansion.c:143:2
	callq	replace_variable_in_lexeme
.Ltmp28:
	.loc	1 144 18 is_stmt 1              # src/parsing/command_expansion.c:144:18
	movq	-16(%rbp), %rax
	.loc	1 144 17 is_stmt 0              # src/parsing/command_expansion.c:144:17
	movq	(%rax), %rdi
	.loc	1 144 6                         # src/parsing/command_expansion.c:144:6
	callq	ft_strlen
	.loc	1 144 36                        # src/parsing/command_expansion.c:144:36
	cmpq	$0, %rax
	.loc	1 144 41                        # src/parsing/command_expansion.c:144:41
	jne	.LBB4_3
# %bb.1:
	.loc	1 144 54                        # src/parsing/command_expansion.c:144:54
	movq	-8(%rbp), %rdi
	.loc	1 144 44                        # src/parsing/command_expansion.c:144:44
	callq	ft_strlen
	.loc	1 144 62                        # src/parsing/command_expansion.c:144:62
	cmpq	$0, %rax
.Ltmp29:
	.loc	1 144 6                         # src/parsing/command_expansion.c:144:6
	jbe	.LBB4_3
# %bb.2:
.Ltmp30:
	.loc	1 146 10 is_stmt 1              # src/parsing/command_expansion.c:146:10
	movq	-16(%rbp), %rax
	.loc	1 146 9 is_stmt 0               # src/parsing/command_expansion.c:146:9
	movq	(%rax), %rdi
	.loc	1 146 3                         # src/parsing/command_expansion.c:146:3
	callq	free
	.loc	1 147 5 is_stmt 1               # src/parsing/command_expansion.c:147:5
	movq	-16(%rbp), %rax
	.loc	1 147 22 is_stmt 0              # src/parsing/command_expansion.c:147:22
	movq	$0, (%rax)
.Ltmp31:
.LBB4_3:
	.loc	1 149 1 is_stmt 1               # src/parsing/command_expansion.c:149:1
	addq	$32, %rsp
	popq	%rbp
	.cfi_def_cfa %rsp, 8
	retq
.Ltmp32:
.Lfunc_end4:
	.size	remove_expansion_name, .Lfunc_end4-remove_expansion_name
	.cfi_endproc
                                        # -- End function
	.globl	expand_lexeme_variable          # -- Begin function expand_lexeme_variable
	.p2align	4, 0x90
	.type	expand_lexeme_variable,@function
expand_lexeme_variable:                 # @expand_lexeme_variable
.Lfunc_begin5:
	.loc	1 152 0                         # src/parsing/command_expansion.c:152:0
	.cfi_startproc
# %bb.0:
	pushq	%rbp
	.cfi_def_cfa_offset 16
	.cfi_offset %rbp, -16
	movq	%rsp, %rbp
	.cfi_def_cfa_register %rbp
	subq	$64, %rsp
	movq	%rdi, -16(%rbp)
	movq	%rsi, -24(%rbp)
	movq	%rdx, -32(%rbp)
.Ltmp33:
	.loc	1 156 21 prologue_end           # src/parsing/command_expansion.c:156:21
	movq	-16(%rbp), %rdi
	.loc	1 156 11 is_stmt 0              # src/parsing/command_expansion.c:156:11
	callq	ft_strlen
	movq	%rax, -56(%rbp)                 # 8-byte Spill
	.loc	1 156 41                        # src/parsing/command_expansion.c:156:41
	movq	-24(%rbp), %rdi
	.loc	1 156 31                        # src/parsing/command_expansion.c:156:31
	callq	ft_strlen
	movq	%rax, %rcx
	movq	-56(%rbp), %rax                 # 8-byte Reload
	.loc	1 156 29                        # src/parsing/command_expansion.c:156:29
	subq	%rcx, %rax
                                        # kill: def $eax killed $eax killed $rax
	.loc	1 156 9                         # src/parsing/command_expansion.c:156:9
	movl	%eax, -36(%rbp)
.Ltmp34:
	.loc	1 157 6 is_stmt 1               # src/parsing/command_expansion.c:157:6
	cmpq	$0, -32(%rbp)
.Ltmp35:
	.loc	1 157 6 is_stmt 0               # src/parsing/command_expansion.c:157:6
	je	.LBB5_2
# %bb.1:
.Ltmp36:
	.loc	1 158 23 is_stmt 1              # src/parsing/command_expansion.c:158:23
	movq	-32(%rbp), %rdi
	.loc	1 158 13 is_stmt 0              # src/parsing/command_expansion.c:158:13
	callq	ft_strlen
	movq	%rax, %rcx
	.loc	1 158 10                        # src/parsing/command_expansion.c:158:10
	movslq	-36(%rbp), %rax
	addq	%rcx, %rax
                                        # kill: def $eax killed $eax killed $rax
	movl	%eax, -36(%rbp)
.Ltmp37:
.LBB5_2:
	.loc	1 159 27 is_stmt 1              # src/parsing/command_expansion.c:159:27
	movl	-36(%rbp), %eax
	.loc	1 159 34 is_stmt 0              # src/parsing/command_expansion.c:159:34
	addl	$1, %eax
	.loc	1 159 27                        # src/parsing/command_expansion.c:159:27
	movslq	%eax, %rdi
	.loc	1 159 20                        # src/parsing/command_expansion.c:159:20
	callq	malloc
	.loc	1 159 18                        # src/parsing/command_expansion.c:159:18
	movq	%rax, -48(%rbp)
.Ltmp38:
	.loc	1 160 7 is_stmt 1               # src/parsing/command_expansion.c:160:7
	cmpq	$0, -48(%rbp)
.Ltmp39:
	.loc	1 160 6 is_stmt 0               # src/parsing/command_expansion.c:160:6
	jne	.LBB5_4
# %bb.3:
.Ltmp40:
	.loc	1 161 11 is_stmt 1              # src/parsing/command_expansion.c:161:11
	movabsq	$.L.str, %rdi
	callq	perror
	.loc	1 161 3 is_stmt 0               # src/parsing/command_expansion.c:161:3
	movq	$0, -8(%rbp)
	jmp	.LBB5_8
.Ltmp41:
.LBB5_4:
	.loc	1 162 6 is_stmt 1               # src/parsing/command_expansion.c:162:6
	cmpq	$0, -32(%rbp)
.Ltmp42:
	.loc	1 162 6 is_stmt 0               # src/parsing/command_expansion.c:162:6
	je	.LBB5_6
# %bb.5:
.Ltmp43:
	.loc	1 163 35 is_stmt 1              # src/parsing/command_expansion.c:163:35
	movq	-16(%rbp), %rdi
	.loc	1 163 61 is_stmt 0              # src/parsing/command_expansion.c:163:61
	movq	-32(%rbp), %rdx
	.loc	1 163 68                        # src/parsing/command_expansion.c:163:68
	movq	-24(%rbp), %rcx
	.loc	1 163 3                         # src/parsing/command_expansion.c:163:3
	leaq	-48(%rbp), %rsi
	callq	replace_expansion_name_by_value
	jmp	.LBB5_7
.LBB5_6:
	.loc	1 165 25 is_stmt 1              # src/parsing/command_expansion.c:165:25
	movq	-16(%rbp), %rdi
	.loc	1 165 51 is_stmt 0              # src/parsing/command_expansion.c:165:51
	movq	-24(%rbp), %rdx
	.loc	1 165 3                         # src/parsing/command_expansion.c:165:3
	leaq	-48(%rbp), %rsi
	callq	remove_expansion_name
.Ltmp44:
.LBB5_7:
	.loc	1 166 7 is_stmt 1               # src/parsing/command_expansion.c:166:7
	movq	-16(%rbp), %rdi
	.loc	1 166 2 is_stmt 0               # src/parsing/command_expansion.c:166:2
	callq	free
	.loc	1 167 10 is_stmt 1              # src/parsing/command_expansion.c:167:10
	movq	-48(%rbp), %rax
	.loc	1 167 2 is_stmt 0               # src/parsing/command_expansion.c:167:2
	movq	%rax, -8(%rbp)
.LBB5_8:
	.loc	1 168 1 is_stmt 1               # src/parsing/command_expansion.c:168:1
	movq	-8(%rbp), %rax
	addq	$64, %rsp
	popq	%rbp
	.cfi_def_cfa %rsp, 8
	retq
.Ltmp45:
.Lfunc_end5:
	.size	expand_lexeme_variable, .Lfunc_end5-expand_lexeme_variable
	.cfi_endproc
                                        # -- End function
	.globl	manage_expansion                # -- Begin function manage_expansion
	.p2align	4, 0x90
	.type	manage_expansion,@function
manage_expansion:                       # @manage_expansion
.Lfunc_begin6:
	.loc	1 171 0                         # src/parsing/command_expansion.c:171:0
	.cfi_startproc
# %bb.0:
	pushq	%rbp
	.cfi_def_cfa_offset 16
	.cfi_offset %rbp, -16
	movq	%rsp, %rbp
	.cfi_def_cfa_register %rbp
	subq	$48, %rsp
	movq	%rdi, -8(%rbp)
	movq	%rsi, -16(%rbp)
	movq	%rdx, -24(%rbp)
.Ltmp46:
	.loc	1 176 8 prologue_end            # src/parsing/command_expansion.c:176:8
	movq	$0, -32(%rbp)
	.loc	1 177 16                        # src/parsing/command_expansion.c:177:16
	movq	-16(%rbp), %rax
	.loc	1 177 15 is_stmt 0              # src/parsing/command_expansion.c:177:15
	movq	(%rax), %rax
	.loc	1 177 24                        # src/parsing/command_expansion.c:177:24
	movq	24(%rax), %rax
	.loc	1 177 12                        # src/parsing/command_expansion.c:177:12
	movq	%rax, -48(%rbp)
.LBB6_1:                                # =>This Inner Loop Header: Depth=1
	.loc	1 178 2 is_stmt 1               # src/parsing/command_expansion.c:178:2
	cmpq	$0, -48(%rbp)
	je	.LBB6_9
# %bb.2:                                #   in Loop: Header=BB6_1 Depth=1
.Ltmp47:
	.loc	1 180 31                        # src/parsing/command_expansion.c:180:31
	movq	-24(%rbp), %rdi
	.loc	1 180 36 is_stmt 0              # src/parsing/command_expansion.c:180:36
	movq	-48(%rbp), %rax
	.loc	1 180 47                        # src/parsing/command_expansion.c:180:47
	movq	(%rax), %rsi
	.loc	1 180 11                        # src/parsing/command_expansion.c:180:11
	callq	get_expansion_value
	.loc	1 180 9                         # src/parsing/command_expansion.c:180:9
	movq	%rax, -32(%rbp)
.Ltmp48:
	.loc	1 181 34 is_stmt 1              # src/parsing/command_expansion.c:181:34
	movq	-32(%rbp), %rdi
	.loc	1 181 7 is_stmt 0               # src/parsing/command_expansion.c:181:7
	callq	is_expansion_stored_in_env
.Ltmp49:
	.loc	1 181 7                         # src/parsing/command_expansion.c:181:7
	testb	$1, %al
	jne	.LBB6_3
	jmp	.LBB6_4
.LBB6_3:                                #   in Loop: Header=BB6_1 Depth=1
.Ltmp50:
	.loc	1 182 48 is_stmt 1              # src/parsing/command_expansion.c:182:48
	movq	-16(%rbp), %rax
	.loc	1 182 47 is_stmt 0              # src/parsing/command_expansion.c:182:47
	movq	(%rax), %rax
	.loc	1 182 56                        # src/parsing/command_expansion.c:182:56
	movq	16(%rax), %rdi
	.loc	1 183 6 is_stmt 1               # src/parsing/command_expansion.c:183:6
	movq	-48(%rbp), %rax
	.loc	1 183 17 is_stmt 0              # src/parsing/command_expansion.c:183:17
	movq	(%rax), %rsi
	.loc	1 183 23                        # src/parsing/command_expansion.c:183:23
	movq	-32(%rbp), %rdx
	.loc	1 182 23 is_stmt 1              # src/parsing/command_expansion.c:182:23
	callq	expand_lexeme_variable
	movq	%rax, %rcx
	.loc	1 182 6 is_stmt 0               # src/parsing/command_expansion.c:182:6
	movq	-16(%rbp), %rax
	.loc	1 182 5                         # src/parsing/command_expansion.c:182:5
	movq	(%rax), %rax
	.loc	1 182 21                        # src/parsing/command_expansion.c:182:21
	movq	%rcx, 16(%rax)
	.loc	1 182 4                         # src/parsing/command_expansion.c:182:4
	jmp	.LBB6_8
.LBB6_4:                                #   in Loop: Header=BB6_1 Depth=1
.Ltmp51:
	.loc	1 184 27 is_stmt 1              # src/parsing/command_expansion.c:184:27
	movq	-48(%rbp), %rax
	.loc	1 184 38 is_stmt 0              # src/parsing/command_expansion.c:184:38
	movq	(%rax), %rdi
	.loc	1 184 12                        # src/parsing/command_expansion.c:184:12
	callq	is_exit_status
.Ltmp52:
	.loc	1 184 12                        # src/parsing/command_expansion.c:184:12
	testb	$1, %al
	jne	.LBB6_5
	jmp	.LBB6_6
.LBB6_5:                                #   in Loop: Header=BB6_1 Depth=1
.Ltmp53:
	.loc	1 186 31 is_stmt 1              # src/parsing/command_expansion.c:186:31
	movq	-8(%rbp), %rax
	.loc	1 186 42 is_stmt 0              # src/parsing/command_expansion.c:186:42
	movl	44(%rax), %edi
	.loc	1 186 23                        # src/parsing/command_expansion.c:186:23
	callq	ft_itoa
	.loc	1 186 21                        # src/parsing/command_expansion.c:186:21
	movq	%rax, -40(%rbp)
	.loc	1 187 48 is_stmt 1              # src/parsing/command_expansion.c:187:48
	movq	-16(%rbp), %rax
	.loc	1 187 47 is_stmt 0              # src/parsing/command_expansion.c:187:47
	movq	(%rax), %rax
	.loc	1 187 56                        # src/parsing/command_expansion.c:187:56
	movq	16(%rax), %rdi
	.loc	1 188 6 is_stmt 1               # src/parsing/command_expansion.c:188:6
	movq	-48(%rbp), %rax
	.loc	1 188 17 is_stmt 0              # src/parsing/command_expansion.c:188:17
	movq	(%rax), %rsi
	.loc	1 188 23                        # src/parsing/command_expansion.c:188:23
	movq	-40(%rbp), %rdx
	.loc	1 187 23 is_stmt 1              # src/parsing/command_expansion.c:187:23
	callq	expand_lexeme_variable
	movq	%rax, %rcx
	.loc	1 187 6 is_stmt 0               # src/parsing/command_expansion.c:187:6
	movq	-16(%rbp), %rax
	.loc	1 187 5                         # src/parsing/command_expansion.c:187:5
	movq	(%rax), %rax
	.loc	1 187 21                        # src/parsing/command_expansion.c:187:21
	movq	%rcx, 16(%rax)
	.loc	1 189 9 is_stmt 1               # src/parsing/command_expansion.c:189:9
	movq	-40(%rbp), %rdi
	.loc	1 189 4 is_stmt 0               # src/parsing/command_expansion.c:189:4
	callq	free
	.loc	1 190 3 is_stmt 1               # src/parsing/command_expansion.c:190:3
	jmp	.LBB6_7
.Ltmp54:
.LBB6_6:                                #   in Loop: Header=BB6_1 Depth=1
	.loc	1 192 48                        # src/parsing/command_expansion.c:192:48
	movq	-16(%rbp), %rax
	.loc	1 192 47 is_stmt 0              # src/parsing/command_expansion.c:192:47
	movq	(%rax), %rax
	.loc	1 192 56                        # src/parsing/command_expansion.c:192:56
	movq	16(%rax), %rdi
	.loc	1 193 6 is_stmt 1               # src/parsing/command_expansion.c:193:6
	movq	-48(%rbp), %rax
	.loc	1 193 17 is_stmt 0              # src/parsing/command_expansion.c:193:17
	movq	(%rax), %rsi
	.loc	1 192 23 is_stmt 1              # src/parsing/command_expansion.c:192:23
	xorl	%eax, %eax
	movl	%eax, %edx
	callq	expand_lexeme_variable
	movq	%rax, %rcx
	.loc	1 192 6 is_stmt 0               # src/parsing/command_expansion.c:192:6
	movq	-16(%rbp), %rax
	.loc	1 192 5                         # src/parsing/command_expansion.c:192:5
	movq	(%rax), %rax
	.loc	1 192 21                        # src/parsing/command_expansion.c:192:21
	movq	%rcx, 16(%rax)
.Ltmp55:
.LBB6_7:                                #   in Loop: Header=BB6_1 Depth=1
	.loc	1 0 21                          # src/parsing/command_expansion.c:0:21
	jmp	.LBB6_8
.LBB6_8:                                #   in Loop: Header=BB6_1 Depth=1
	.loc	1 194 15 is_stmt 1              # src/parsing/command_expansion.c:194:15
	movq	-48(%rbp), %rax
	.loc	1 194 26 is_stmt 0              # src/parsing/command_expansion.c:194:26
	movq	8(%rax), %rax
	.loc	1 194 13                        # src/parsing/command_expansion.c:194:13
	movq	%rax, -48(%rbp)
.Ltmp56:
	.loc	1 178 2 is_stmt 1               # src/parsing/command_expansion.c:178:2
	jmp	.LBB6_1
.LBB6_9:
	.loc	1 196 1                         # src/parsing/command_expansion.c:196:1
	addq	$48, %rsp
	popq	%rbp
	.cfi_def_cfa %rsp, 8
	retq
.Ltmp57:
.Lfunc_end6:
	.size	manage_expansion, .Lfunc_end6-manage_expansion
	.cfi_endproc
                                        # -- End function
	.type	.L.str,@object                  # @.str
	.section	.rodata.str1.1,"aMS",@progbits,1
.L.str:
	.asciz	"malloc"
	.size	.L.str, 7

	.file	2 "/usr/lib/llvm-12/lib/clang/12.0.1/include" "stddef.h"
	.file	3 "/mnt/nfs/homes/cboukhal/minishell" "src/parsing/../../include/minishell.h"
	.file	4 "/usr/include" "dirent.h"
	.file	5 "/usr/include" "signal.h"
	.file	6 "/usr/include/x86_64-linux-gnu/bits" "sigaction.h"
	.file	7 "/usr/include/x86_64-linux-gnu/bits/types" "siginfo_t.h"
	.file	8 "/usr/include/x86_64-linux-gnu/bits" "types.h"
	.file	9 "/usr/include/x86_64-linux-gnu/bits/types" "__sigval_t.h"
	.file	10 "/usr/include/x86_64-linux-gnu/bits/types" "__sigset_t.h"
	.file	11 "/usr/include/x86_64-linux-gnu/bits" "struct_stat.h"
	.file	12 "/usr/include/x86_64-linux-gnu/bits/types" "struct_timespec.h"
	.file	13 "/usr/include/x86_64-linux-gnu/bits" "termios.h"
	.file	14 "/usr/include/x86_64-linux-gnu/bits" "termios-struct.h"
	.section	".note.GNU-stack","",@progbits
	.addrsig
	.addrsig_sym get_expansion_value
	.addrsig_sym ft_strncmp
	.addrsig_sym ft_strlen
	.addrsig_sym ft_strdup
	.addrsig_sym expand_variable_in_lexeme
	.addrsig_sym replace_expansion_name_by_value
	.addrsig_sym is_exit_status
	.addrsig_sym replace_variable_in_lexeme
	.addrsig_sym remove_expansion_name
	.addrsig_sym free
	.addrsig_sym expand_lexeme_variable
	.addrsig_sym malloc
	.addrsig_sym perror
	.addrsig_sym is_expansion_stored_in_env
	.addrsig_sym ft_itoa