	.text
	.file	"command_redir_outfile.c"
	.globl	add_outfile_to_list             # -- Begin function add_outfile_to_list
	.p2align	4, 0x90
	.type	add_outfile_to_list,@function
add_outfile_to_list:                    # @add_outfile_to_list
.Lfunc_begin0:
	.file	1 "/mnt/nfs/homes/cboukhal/42/minishell" "src/parsing/command_redir_outfile.c"
	.loc	1 16 0                          # src/parsing/command_redir_outfile.c:16:0
	.cfi_startproc
# %bb.0:
	pushq	%rbp
	.cfi_def_cfa_offset 16
	.cfi_offset %rbp, -16
	movq	%rsp, %rbp
	.cfi_def_cfa_register %rbp
	movq	%rdi, -8(%rbp)
	movq	%rsi, -16(%rbp)
.Ltmp0:
	.loc	1 19 8 prologue_end             # src/parsing/command_redir_outfile.c:19:8
	movq	-8(%rbp), %rax
	.loc	1 19 6 is_stmt 0                # src/parsing/command_redir_outfile.c:19:6
	cmpq	$0, (%rax)
.Ltmp1:
	.loc	1 19 6                          # src/parsing/command_redir_outfile.c:19:6
	je	.LBB0_7
# %bb.1:
.Ltmp2:
	.loc	1 21 13 is_stmt 1               # src/parsing/command_redir_outfile.c:21:13
	movq	-8(%rbp), %rax
	.loc	1 21 12 is_stmt 0               # src/parsing/command_redir_outfile.c:21:12
	movq	(%rax), %rax
	.loc	1 21 9                          # src/parsing/command_redir_outfile.c:21:9
	movq	%rax, -24(%rbp)
.LBB0_2:                                # =>This Inner Loop Header: Depth=1
	.loc	1 22 3 is_stmt 1                # src/parsing/command_redir_outfile.c:22:3
	cmpq	$0, -24(%rbp)
	je	.LBB0_6
# %bb.3:                                #   in Loop: Header=BB0_2 Depth=1
.Ltmp3:
	.loc	1 24 8                          # src/parsing/command_redir_outfile.c:24:8
	movq	-24(%rbp), %rax
	.loc	1 24 20 is_stmt 0               # src/parsing/command_redir_outfile.c:24:20
	cmpq	$0, 16(%rax)
.Ltmp4:
	.loc	1 24 8                          # src/parsing/command_redir_outfile.c:24:8
	jne	.LBB0_5
# %bb.4:
.Ltmp5:
	.loc	1 25 5 is_stmt 1                # src/parsing/command_redir_outfile.c:25:5
	jmp	.LBB0_6
.Ltmp6:
.LBB0_5:                                #   in Loop: Header=BB0_2 Depth=1
	.loc	1 26 12                         # src/parsing/command_redir_outfile.c:26:12
	movq	-24(%rbp), %rax
	.loc	1 26 19 is_stmt 0               # src/parsing/command_redir_outfile.c:26:19
	movq	16(%rax), %rax
	.loc	1 26 10                         # src/parsing/command_redir_outfile.c:26:10
	movq	%rax, -24(%rbp)
.Ltmp7:
	.loc	1 22 3 is_stmt 1                # src/parsing/command_redir_outfile.c:22:3
	jmp	.LBB0_2
.LBB0_6:
	.loc	1 28 19                         # src/parsing/command_redir_outfile.c:28:19
	movq	-16(%rbp), %rax
	.loc	1 28 18 is_stmt 0               # src/parsing/command_redir_outfile.c:28:18
	movq	(%rax), %rcx
	.loc	1 28 3                          # src/parsing/command_redir_outfile.c:28:3
	movq	-24(%rbp), %rax
	.loc	1 28 15                         # src/parsing/command_redir_outfile.c:28:15
	movq	%rcx, 16(%rax)
	.loc	1 29 3 is_stmt 1                # src/parsing/command_redir_outfile.c:29:3
	jmp	.LBB0_8
.Ltmp8:
.LBB0_7:
	.loc	1 32 18                         # src/parsing/command_redir_outfile.c:32:18
	movq	-16(%rbp), %rax
	.loc	1 32 17 is_stmt 0               # src/parsing/command_redir_outfile.c:32:17
	movq	(%rax), %rcx
	.loc	1 32 5                          # src/parsing/command_redir_outfile.c:32:5
	movq	-8(%rbp), %rax
	.loc	1 32 14                         # src/parsing/command_redir_outfile.c:32:14
	movq	%rcx, (%rax)
.Ltmp9:
.LBB0_8:
	.loc	1 33 1 is_stmt 1                # src/parsing/command_redir_outfile.c:33:1
	popq	%rbp
	.cfi_def_cfa %rsp, 8
	retq
.Ltmp10:
.Lfunc_end0:
	.size	add_outfile_to_list, .Lfunc_end0-add_outfile_to_list
	.cfi_endproc
                                        # -- End function
	.globl	extract_command_outfile         # -- Begin function extract_command_outfile
	.p2align	4, 0x90
	.type	extract_command_outfile,@function
extract_command_outfile:                # @extract_command_outfile
.Lfunc_begin1:
	.loc	1 36 0                          # src/parsing/command_redir_outfile.c:36:0
	.cfi_startproc
# %bb.0:
	pushq	%rbp
	.cfi_def_cfa_offset 16
	.cfi_offset %rbp, -16
	movq	%rsp, %rbp
	.cfi_def_cfa_register %rbp
	subq	$32, %rsp
	movq	%rdi, -8(%rbp)
	movq	%rsi, -16(%rbp)
.Ltmp11:
	.loc	1 39 8 prologue_end             # src/parsing/command_redir_outfile.c:39:8
	movl	$24, %edi
	callq	malloc
	.loc	1 39 6 is_stmt 0                # src/parsing/command_redir_outfile.c:39:6
	movq	%rax, -24(%rbp)
.Ltmp12:
	.loc	1 40 7 is_stmt 1                # src/parsing/command_redir_outfile.c:40:7
	cmpq	$0, -24(%rbp)
.Ltmp13:
	.loc	1 40 6 is_stmt 0                # src/parsing/command_redir_outfile.c:40:6
	jne	.LBB1_2
# %bb.1:
.Ltmp14:
	.loc	1 42 3 is_stmt 1                # src/parsing/command_redir_outfile.c:42:3
	movabsq	$.L.str, %rdi
	callq	perror
	.loc	1 43 3                          # src/parsing/command_redir_outfile.c:43:3
	jmp	.LBB1_3
.Ltmp15:
.LBB1_2:
	.loc	1 45 2                          # src/parsing/command_redir_outfile.c:45:2
	movq	-24(%rbp), %rax
	.loc	1 45 12 is_stmt 0               # src/parsing/command_redir_outfile.c:45:12
	movq	$0, 16(%rax)
	.loc	1 46 14 is_stmt 1               # src/parsing/command_redir_outfile.c:46:14
	movq	-8(%rbp), %rax
	.loc	1 46 21 is_stmt 0               # src/parsing/command_redir_outfile.c:46:21
	movl	(%rax), %ecx
	.loc	1 46 2                          # src/parsing/command_redir_outfile.c:46:2
	movq	-24(%rbp), %rax
	.loc	1 46 12                         # src/parsing/command_redir_outfile.c:46:12
	movl	%ecx, 4(%rax)
	.loc	1 47 33 is_stmt 1               # src/parsing/command_redir_outfile.c:47:33
	movq	-8(%rbp), %rax
	.loc	1 47 40 is_stmt 0               # src/parsing/command_redir_outfile.c:47:40
	movq	16(%rax), %rdi
	.loc	1 47 48                         # src/parsing/command_redir_outfile.c:47:48
	movq	-24(%rbp), %rax
	.loc	1 47 53                         # src/parsing/command_redir_outfile.c:47:53
	movl	4(%rax), %esi
	.loc	1 47 14                         # src/parsing/command_redir_outfile.c:47:14
	callq	get_redir_filename
	movq	%rax, %rcx
	.loc	1 47 2                          # src/parsing/command_redir_outfile.c:47:2
	movq	-24(%rbp), %rax
	.loc	1 47 12                         # src/parsing/command_redir_outfile.c:47:12
	movq	%rcx, 8(%rax)
	.loc	1 48 25 is_stmt 1               # src/parsing/command_redir_outfile.c:48:25
	movq	-16(%rbp), %rdi
	.loc	1 48 2 is_stmt 0                # src/parsing/command_redir_outfile.c:48:2
	leaq	-24(%rbp), %rsi
	callq	add_outfile_to_list
.LBB1_3:
	.loc	1 49 1 is_stmt 1                # src/parsing/command_redir_outfile.c:49:1
	addq	$32, %rsp
	popq	%rbp
	.cfi_def_cfa %rsp, 8
	retq
.Ltmp16:
.Lfunc_end1:
	.size	extract_command_outfile, .Lfunc_end1-extract_command_outfile
	.cfi_endproc
                                        # -- End function
	.type	.L.str,@object                  # @.str
	.section	.rodata.str1.1,"aMS",@progbits,1
.L.str:
	.asciz	"malloc"
	.size	.L.str, 7

	.file	2 "/mnt/nfs/homes/cboukhal/42/minishell" "src/parsing/../../include/minishell.h"
	.section	".note.GNU-stack","",@progbits
	.addrsig
	.addrsig_sym add_outfile_to_list
	.addrsig_sym malloc
	.addrsig_sym perror
	.addrsig_sym get_redir_filename