	.text
	.file	"free_utils.c"
	.globl	free_environment                # -- Begin function free_environment
	.p2align	4, 0x90
	.type	free_environment,@function
free_environment:                       # @free_environment
.Lfunc_begin0:
	.file	1 "/mnt/nfs/homes/jbocktor/student/group_minishell/more_hope/minigroups" "src/memory/free_utils.c"
	.loc	1 16 0                          # src/memory/free_utils.c:16:0
	.cfi_startproc
# %bb.0:
	pushq	%rbp
	.cfi_def_cfa_offset 16
	.cfi_offset %rbp, -16
	movq	%rsp, %rbp
	.cfi_def_cfa_register %rbp
	subq	$16, %rsp
	movq	%rdi, -8(%rbp)
.LBB0_1:                                # =>This Inner Loop Header: Depth=1
.Ltmp0:
	.loc	1 19 2 prologue_end             # src/memory/free_utils.c:19:2
	cmpq	$0, -8(%rbp)
	je	.LBB0_3
# %bb.2:                                #   in Loop: Header=BB0_1 Depth=1
.Ltmp1:
	.loc	1 21 9                          # src/memory/free_utils.c:21:9
	movq	-8(%rbp), %rax
	.loc	1 21 24 is_stmt 0               # src/memory/free_utils.c:21:24
	movq	16(%rax), %rax
	.loc	1 21 7                          # src/memory/free_utils.c:21:7
	movq	%rax, -16(%rbp)
	.loc	1 22 8 is_stmt 1                # src/memory/free_utils.c:22:8
	movq	-8(%rbp), %rax
	.loc	1 22 23 is_stmt 0               # src/memory/free_utils.c:22:23
	movq	(%rax), %rdi
	.loc	1 22 3                          # src/memory/free_utils.c:22:3
	callq	free
	.loc	1 23 8 is_stmt 1                # src/memory/free_utils.c:23:8
	movq	-8(%rbp), %rax
	.loc	1 23 23 is_stmt 0               # src/memory/free_utils.c:23:23
	movq	8(%rax), %rdi
	.loc	1 23 3                          # src/memory/free_utils.c:23:3
	callq	free
	.loc	1 24 8 is_stmt 1                # src/memory/free_utils.c:24:8
	movq	-8(%rbp), %rdi
	.loc	1 24 3 is_stmt 0                # src/memory/free_utils.c:24:3
	callq	free
	.loc	1 25 19 is_stmt 1               # src/memory/free_utils.c:25:19
	movq	-16(%rbp), %rax
	.loc	1 25 17 is_stmt 0               # src/memory/free_utils.c:25:17
	movq	%rax, -8(%rbp)
.Ltmp2:
	.loc	1 19 2 is_stmt 1                # src/memory/free_utils.c:19:2
	jmp	.LBB0_1
.LBB0_3:
	.loc	1 27 7                          # src/memory/free_utils.c:27:7
	movq	-16(%rbp), %rdi
	.loc	1 27 2 is_stmt 0                # src/memory/free_utils.c:27:2
	callq	free
	.loc	1 28 7 is_stmt 1                # src/memory/free_utils.c:28:7
	movq	-8(%rbp), %rdi
	.loc	1 28 2 is_stmt 0                # src/memory/free_utils.c:28:2
	callq	free
	.loc	1 29 1 is_stmt 1                # src/memory/free_utils.c:29:1
	addq	$16, %rsp
	popq	%rbp
	.cfi_def_cfa %rsp, 8
	retq
.Ltmp3:
.Lfunc_end0:
	.size	free_environment, .Lfunc_end0-free_environment
	.cfi_endproc
                                        # -- End function
	.globl	free_char_array                 # -- Begin function free_char_array
	.p2align	4, 0x90
	.type	free_char_array,@function
free_char_array:                        # @free_char_array
.Lfunc_begin1:
	.loc	1 32 0                          # src/memory/free_utils.c:32:0
	.cfi_startproc
# %bb.0:
	pushq	%rbp
	.cfi_def_cfa_offset 16
	.cfi_offset %rbp, -16
	movq	%rsp, %rbp
	.cfi_def_cfa_register %rbp
	subq	$16, %rsp
	movq	%rdi, -8(%rbp)
.Ltmp4:
	.loc	1 35 4 prologue_end             # src/memory/free_utils.c:35:4
	movl	$0, -12(%rbp)
.LBB1_1:                                # =>This Inner Loop Header: Depth=1
	.loc	1 36 9                          # src/memory/free_utils.c:36:9
	movq	-8(%rbp), %rax
	movslq	-12(%rbp), %rcx
	.loc	1 36 2 is_stmt 0                # src/memory/free_utils.c:36:2
	cmpq	$0, (%rax,%rcx,8)
	je	.LBB1_3
# %bb.2:                                #   in Loop: Header=BB1_1 Depth=1
.Ltmp5:
	.loc	1 38 8 is_stmt 1                # src/memory/free_utils.c:38:8
	movq	-8(%rbp), %rax
	movslq	-12(%rbp), %rcx
	movq	(%rax,%rcx,8), %rdi
	.loc	1 38 3 is_stmt 0                # src/memory/free_utils.c:38:3
	callq	free
	.loc	1 39 4 is_stmt 1                # src/memory/free_utils.c:39:4
	movl	-12(%rbp), %eax
	addl	$1, %eax
	movl	%eax, -12(%rbp)
.Ltmp6:
	.loc	1 36 2                          # src/memory/free_utils.c:36:2
	jmp	.LBB1_1
.LBB1_3:
	.loc	1 41 7                          # src/memory/free_utils.c:41:7
	movq	-8(%rbp), %rdi
	.loc	1 41 2 is_stmt 0                # src/memory/free_utils.c:41:2
	callq	free
	.loc	1 42 8 is_stmt 1                # src/memory/free_utils.c:42:8
	movq	$0, -8(%rbp)
	.loc	1 43 1                          # src/memory/free_utils.c:43:1
	addq	$16, %rsp
	popq	%rbp
	.cfi_def_cfa %rsp, 8
	retq
.Ltmp7:
.Lfunc_end1:
	.size	free_char_array, .Lfunc_end1-free_char_array
	.cfi_endproc
                                        # -- End function
	.globl	free_expansion                  # -- Begin function free_expansion
	.p2align	4, 0x90
	.type	free_expansion,@function
free_expansion:                         # @free_expansion
.Lfunc_begin2:
	.loc	1 46 0                          # src/memory/free_utils.c:46:0
	.cfi_startproc
# %bb.0:
	pushq	%rbp
	.cfi_def_cfa_offset 16
	.cfi_offset %rbp, -16
	movq	%rsp, %rbp
	.cfi_def_cfa_register %rbp
	subq	$16, %rsp
	movq	%rdi, -8(%rbp)
.Ltmp8:
	.loc	1 49 10 prologue_end            # src/memory/free_utils.c:49:10
	movq	-8(%rbp), %rax
	.loc	1 49 8 is_stmt 0                # src/memory/free_utils.c:49:8
	movq	%rax, -16(%rbp)
.LBB2_1:                                # =>This Inner Loop Header: Depth=1
	.loc	1 50 2 is_stmt 1                # src/memory/free_utils.c:50:2
	cmpq	$0, -16(%rbp)
	je	.LBB2_3
# %bb.2:                                #   in Loop: Header=BB2_1 Depth=1
.Ltmp9:
	.loc	1 52 11                         # src/memory/free_utils.c:52:11
	movq	-16(%rbp), %rax
	.loc	1 52 18 is_stmt 0               # src/memory/free_utils.c:52:18
	movq	8(%rax), %rax
	.loc	1 52 9                          # src/memory/free_utils.c:52:9
	movq	%rax, -16(%rbp)
	.loc	1 53 8 is_stmt 1                # src/memory/free_utils.c:53:8
	movq	-8(%rbp), %rax
	.loc	1 53 19 is_stmt 0               # src/memory/free_utils.c:53:19
	movq	(%rax), %rdi
	.loc	1 53 3                          # src/memory/free_utils.c:53:3
	callq	free
	.loc	1 54 8 is_stmt 1                # src/memory/free_utils.c:54:8
	movq	-8(%rbp), %rdi
	.loc	1 54 3 is_stmt 0                # src/memory/free_utils.c:54:3
	callq	free
	.loc	1 55 15 is_stmt 1               # src/memory/free_utils.c:55:15
	movq	-16(%rbp), %rax
	.loc	1 55 13 is_stmt 0               # src/memory/free_utils.c:55:13
	movq	%rax, -8(%rbp)
.Ltmp10:
	.loc	1 50 2 is_stmt 1                # src/memory/free_utils.c:50:2
	jmp	.LBB2_1
.LBB2_3:
	.loc	1 57 1                          # src/memory/free_utils.c:57:1
	addq	$16, %rsp
	popq	%rbp
	.cfi_def_cfa %rsp, 8
	retq
.Ltmp11:
.Lfunc_end2:
	.size	free_expansion, .Lfunc_end2-free_expansion
	.cfi_endproc
                                        # -- End function
	.globl	free_token_stream               # -- Begin function free_token_stream
	.p2align	4, 0x90
	.type	free_token_stream,@function
free_token_stream:                      # @free_token_stream
.Lfunc_begin3:
	.loc	1 60 0                          # src/memory/free_utils.c:60:0
	.cfi_startproc
# %bb.0:
	pushq	%rbp
	.cfi_def_cfa_offset 16
	.cfi_offset %rbp, -16
	movq	%rsp, %rbp
	.cfi_def_cfa_register %rbp
	subq	$16, %rsp
	movq	%rdi, -8(%rbp)
.Ltmp12:
	.loc	1 63 10 prologue_end            # src/memory/free_utils.c:63:10
	movq	-8(%rbp), %rax
	.loc	1 63 8 is_stmt 0                # src/memory/free_utils.c:63:8
	movq	%rax, -16(%rbp)
.LBB3_1:                                # =>This Inner Loop Header: Depth=1
	.loc	1 64 2 is_stmt 1                # src/memory/free_utils.c:64:2
	cmpq	$0, -8(%rbp)
	je	.LBB3_3
# %bb.2:                                #   in Loop: Header=BB3_1 Depth=1
.Ltmp13:
	.loc	1 66 12                         # src/memory/free_utils.c:66:12
	movq	-8(%rbp), %rax
	.loc	1 66 20 is_stmt 0               # src/memory/free_utils.c:66:20
	movq	40(%rax), %rax
	.loc	1 66 10                         # src/memory/free_utils.c:66:10
	movq	%rax, -8(%rbp)
	.loc	1 67 18 is_stmt 1               # src/memory/free_utils.c:67:18
	movq	-16(%rbp), %rax
	.loc	1 67 25 is_stmt 0               # src/memory/free_utils.c:67:25
	movq	24(%rax), %rdi
	.loc	1 67 3                          # src/memory/free_utils.c:67:3
	callq	free_expansion
	.loc	1 68 8 is_stmt 1                # src/memory/free_utils.c:68:8
	movq	-16(%rbp), %rax
	.loc	1 68 15 is_stmt 0               # src/memory/free_utils.c:68:15
	movq	16(%rax), %rdi
	.loc	1 68 3                          # src/memory/free_utils.c:68:3
	callq	free
	.loc	1 69 8 is_stmt 1                # src/memory/free_utils.c:69:8
	movq	-16(%rbp), %rdi
	.loc	1 69 3 is_stmt 0                # src/memory/free_utils.c:69:3
	callq	free
	.loc	1 70 11 is_stmt 1               # src/memory/free_utils.c:70:11
	movq	-8(%rbp), %rax
	.loc	1 70 9 is_stmt 0                # src/memory/free_utils.c:70:9
	movq	%rax, -16(%rbp)
.Ltmp14:
	.loc	1 64 2 is_stmt 1                # src/memory/free_utils.c:64:2
	jmp	.LBB3_1
.LBB3_3:
	.loc	1 72 7                          # src/memory/free_utils.c:72:7
	movq	-8(%rbp), %rdi
	.loc	1 72 2 is_stmt 0                # src/memory/free_utils.c:72:2
	callq	free
	.loc	1 73 9 is_stmt 1                # src/memory/free_utils.c:73:9
	movq	$0, -8(%rbp)
	.loc	1 74 1                          # src/memory/free_utils.c:74:1
	addq	$16, %rsp
	popq	%rbp
	.cfi_def_cfa %rsp, 8
	retq
.Ltmp15:
.Lfunc_end3:
	.size	free_token_stream, .Lfunc_end3-free_token_stream
	.cfi_endproc
                                        # -- End function
	.file	2 "/mnt/nfs/homes/jbocktor/student/group_minishell/more_hope/minigroups" "src/memory/../../include/minishell.h"
	.section	".note.GNU-stack","",@progbits
	.addrsig
	.addrsig_sym free
	.addrsig_sym free_expansion