	.text
	.file	"free_command.c"
	.globl	free_cmd_arg                    # -- Begin function free_cmd_arg
	.p2align	4, 0x90
	.type	free_cmd_arg,@function
free_cmd_arg:                           # @free_cmd_arg
.Lfunc_begin0:
	.file	1 "/mnt/nfs/homes/jbocktor/student/group_minishell/more_hope/minigroups" "src/memory/free_command.c"
	.loc	1 16 0                          # src/memory/free_command.c:16:0
	.cfi_startproc
# %bb.0:
	pushq	%rbp
	.cfi_def_cfa_offset 16
	.cfi_offset %rbp, -16
	movq	%rsp, %rbp
	.cfi_def_cfa_register %rbp
	subq	$16, %rsp
	movq	%rdi, -8(%rbp)
.Ltmp0:
	.loc	1 19 8 prologue_end             # src/memory/free_command.c:19:8
	movq	-8(%rbp), %rax
	.loc	1 19 6 is_stmt 0                # src/memory/free_command.c:19:6
	movq	%rax, -16(%rbp)
.LBB0_1:                                # =>This Inner Loop Header: Depth=1
	.loc	1 20 2 is_stmt 1                # src/memory/free_command.c:20:2
	cmpq	$0, -8(%rbp)
	je	.LBB0_3
# %bb.2:                                #   in Loop: Header=BB0_1 Depth=1
.Ltmp1:
	.loc	1 22 10                         # src/memory/free_command.c:22:10
	movq	-8(%rbp), %rax
	.loc	1 22 16 is_stmt 0               # src/memory/free_command.c:22:16
	movq	8(%rax), %rax
	.loc	1 22 8                          # src/memory/free_command.c:22:8
	movq	%rax, -8(%rbp)
	.loc	1 23 8 is_stmt 1                # src/memory/free_command.c:23:8
	movq	-16(%rbp), %rax
	.loc	1 23 13 is_stmt 0               # src/memory/free_command.c:23:13
	movq	(%rax), %rdi
	.loc	1 23 3                          # src/memory/free_command.c:23:3
	callq	free
	.loc	1 24 8 is_stmt 1                # src/memory/free_command.c:24:8
	movq	-16(%rbp), %rdi
	.loc	1 24 3 is_stmt 0                # src/memory/free_command.c:24:3
	callq	free
	.loc	1 25 9 is_stmt 1                # src/memory/free_command.c:25:9
	movq	-8(%rbp), %rax
	.loc	1 25 7 is_stmt 0                # src/memory/free_command.c:25:7
	movq	%rax, -16(%rbp)
.Ltmp2:
	.loc	1 20 2 is_stmt 1                # src/memory/free_command.c:20:2
	jmp	.LBB0_1
.LBB0_3:
	.loc	1 27 1                          # src/memory/free_command.c:27:1
	addq	$16, %rsp
	popq	%rbp
	.cfi_def_cfa %rsp, 8
	retq
.Ltmp3:
.Lfunc_end0:
	.size	free_cmd_arg, .Lfunc_end0-free_cmd_arg
	.cfi_endproc
                                        # -- End function
	.globl	free_cmd_infile                 # -- Begin function free_cmd_infile
	.p2align	4, 0x90
	.type	free_cmd_infile,@function
free_cmd_infile:                        # @free_cmd_infile
.Lfunc_begin1:
	.loc	1 30 0                          # src/memory/free_command.c:30:0
	.cfi_startproc
# %bb.0:
	pushq	%rbp
	.cfi_def_cfa_offset 16
	.cfi_offset %rbp, -16
	movq	%rsp, %rbp
	.cfi_def_cfa_register %rbp
	subq	$16, %rsp
	movq	%rdi, -8(%rbp)
.Ltmp4:
	.loc	1 33 10 prologue_end            # src/memory/free_command.c:33:10
	movq	-8(%rbp), %rax
	.loc	1 33 8 is_stmt 0                # src/memory/free_command.c:33:8
	movq	%rax, -16(%rbp)
.LBB1_1:                                # =>This Inner Loop Header: Depth=1
	.loc	1 34 2 is_stmt 1                # src/memory/free_command.c:34:2
	cmpq	$0, -16(%rbp)
	je	.LBB1_3
# %bb.2:                                #   in Loop: Header=BB1_1 Depth=1
.Ltmp5:
	.loc	1 36 8                          # src/memory/free_command.c:36:8
	movq	-16(%rbp), %rax
	.loc	1 36 15 is_stmt 0               # src/memory/free_command.c:36:15
	movq	8(%rax), %rdi
	.loc	1 36 3                          # src/memory/free_command.c:36:3
	callq	free
	.loc	1 37 12 is_stmt 1               # src/memory/free_command.c:37:12
	movq	-8(%rbp), %rax
	.loc	1 37 20 is_stmt 0               # src/memory/free_command.c:37:20
	movq	16(%rax), %rax
	.loc	1 37 10                         # src/memory/free_command.c:37:10
	movq	%rax, -8(%rbp)
	.loc	1 38 8 is_stmt 1                # src/memory/free_command.c:38:8
	movq	-16(%rbp), %rdi
	.loc	1 38 3 is_stmt 0                # src/memory/free_command.c:38:3
	callq	free
	.loc	1 39 11 is_stmt 1               # src/memory/free_command.c:39:11
	movq	-8(%rbp), %rax
	.loc	1 39 9 is_stmt 0                # src/memory/free_command.c:39:9
	movq	%rax, -16(%rbp)
.Ltmp6:
	.loc	1 34 2 is_stmt 1                # src/memory/free_command.c:34:2
	jmp	.LBB1_1
.LBB1_3:
	.loc	1 41 1                          # src/memory/free_command.c:41:1
	addq	$16, %rsp
	popq	%rbp
	.cfi_def_cfa %rsp, 8
	retq
.Ltmp7:
.Lfunc_end1:
	.size	free_cmd_infile, .Lfunc_end1-free_cmd_infile
	.cfi_endproc
                                        # -- End function
	.globl	free_cmd_outfile                # -- Begin function free_cmd_outfile
	.p2align	4, 0x90
	.type	free_cmd_outfile,@function
free_cmd_outfile:                       # @free_cmd_outfile
.Lfunc_begin2:
	.loc	1 44 0                          # src/memory/free_command.c:44:0
	.cfi_startproc
# %bb.0:
	pushq	%rbp
	.cfi_def_cfa_offset 16
	.cfi_offset %rbp, -16
	movq	%rsp, %rbp
	.cfi_def_cfa_register %rbp
	subq	$16, %rsp
	movq	%rdi, -8(%rbp)
.Ltmp8:
	.loc	1 47 10 prologue_end            # src/memory/free_command.c:47:10
	movq	-8(%rbp), %rax
	.loc	1 47 8 is_stmt 0                # src/memory/free_command.c:47:8
	movq	%rax, -16(%rbp)
.LBB2_1:                                # =>This Inner Loop Header: Depth=1
	.loc	1 48 2 is_stmt 1                # src/memory/free_command.c:48:2
	cmpq	$0, -16(%rbp)
	je	.LBB2_3
# %bb.2:                                #   in Loop: Header=BB2_1 Depth=1
.Ltmp9:
	.loc	1 50 8                          # src/memory/free_command.c:50:8
	movq	-16(%rbp), %rax
	.loc	1 50 15 is_stmt 0               # src/memory/free_command.c:50:15
	movq	8(%rax), %rdi
	.loc	1 50 3                          # src/memory/free_command.c:50:3
	callq	free
	.loc	1 51 13 is_stmt 1               # src/memory/free_command.c:51:13
	movq	-8(%rbp), %rax
	.loc	1 51 22 is_stmt 0               # src/memory/free_command.c:51:22
	movq	16(%rax), %rax
	.loc	1 51 11                         # src/memory/free_command.c:51:11
	movq	%rax, -8(%rbp)
	.loc	1 52 8 is_stmt 1                # src/memory/free_command.c:52:8
	movq	-16(%rbp), %rdi
	.loc	1 52 3 is_stmt 0                # src/memory/free_command.c:52:3
	callq	free
	.loc	1 53 11 is_stmt 1               # src/memory/free_command.c:53:11
	movq	-8(%rbp), %rax
	.loc	1 53 9 is_stmt 0                # src/memory/free_command.c:53:9
	movq	%rax, -16(%rbp)
.Ltmp10:
	.loc	1 48 2 is_stmt 1                # src/memory/free_command.c:48:2
	jmp	.LBB2_1
.LBB2_3:
	.loc	1 55 1                          # src/memory/free_command.c:55:1
	addq	$16, %rsp
	popq	%rbp
	.cfi_def_cfa %rsp, 8
	retq
.Ltmp11:
.Lfunc_end2:
	.size	free_cmd_outfile, .Lfunc_end2-free_cmd_outfile
	.cfi_endproc
                                        # -- End function
	.globl	free_cmd_redir                  # -- Begin function free_cmd_redir
	.p2align	4, 0x90
	.type	free_cmd_redir,@function
free_cmd_redir:                         # @free_cmd_redir
.Lfunc_begin3:
	.loc	1 58 0                          # src/memory/free_command.c:58:0
	.cfi_startproc
# %bb.0:
	pushq	%rbp
	.cfi_def_cfa_offset 16
	.cfi_offset %rbp, -16
	movq	%rsp, %rbp
	.cfi_def_cfa_register %rbp
	subq	$16, %rsp
	movq	%rdi, -8(%rbp)
.Ltmp12:
	.loc	1 59 6 prologue_end             # src/memory/free_command.c:59:6
	movq	-8(%rbp), %rax
	cmpq	$0, 8(%rax)
.Ltmp13:
	.loc	1 59 6 is_stmt 0                # src/memory/free_command.c:59:6
	je	.LBB3_2
# %bb.1:
.Ltmp14:
	.loc	1 60 19 is_stmt 1               # src/memory/free_command.c:60:19
	movq	-8(%rbp), %rax
	.loc	1 60 26 is_stmt 0               # src/memory/free_command.c:60:26
	movq	8(%rax), %rdi
	.loc	1 60 3                          # src/memory/free_command.c:60:3
	callq	free_cmd_infile
.Ltmp15:
.LBB3_2:
	.loc	1 61 6 is_stmt 1                # src/memory/free_command.c:61:6
	movq	-8(%rbp), %rax
	cmpq	$0, 16(%rax)
.Ltmp16:
	.loc	1 61 6 is_stmt 0                # src/memory/free_command.c:61:6
	je	.LBB3_4
# %bb.3:
.Ltmp17:
	.loc	1 62 20 is_stmt 1               # src/memory/free_command.c:62:20
	movq	-8(%rbp), %rax
	.loc	1 62 27 is_stmt 0               # src/memory/free_command.c:62:27
	movq	16(%rax), %rdi
	.loc	1 62 3                          # src/memory/free_command.c:62:3
	callq	free_cmd_outfile
.Ltmp18:
.LBB3_4:
	.loc	1 63 7 is_stmt 1                # src/memory/free_command.c:63:7
	movq	-8(%rbp), %rdi
	.loc	1 63 2 is_stmt 0                # src/memory/free_command.c:63:2
	callq	free
	.loc	1 64 1 is_stmt 1                # src/memory/free_command.c:64:1
	addq	$16, %rsp
	popq	%rbp
	.cfi_def_cfa %rsp, 8
	retq
.Ltmp19:
.Lfunc_end3:
	.size	free_cmd_redir, .Lfunc_end3-free_cmd_redir
	.cfi_endproc
                                        # -- End function
	.globl	free_cmd                        # -- Begin function free_cmd
	.p2align	4, 0x90
	.type	free_cmd,@function
free_cmd:                               # @free_cmd
.Lfunc_begin4:
	.loc	1 67 0                          # src/memory/free_command.c:67:0
	.cfi_startproc
# %bb.0:
	pushq	%rbp
	.cfi_def_cfa_offset 16
	.cfi_offset %rbp, -16
	movq	%rsp, %rbp
	.cfi_def_cfa_register %rbp
	subq	$16, %rsp
	movq	%rdi, -8(%rbp)
.Ltmp20:
	.loc	1 68 6 prologue_end             # src/memory/free_command.c:68:6
	movq	-8(%rbp), %rax
	cmpq	$0, 16(%rax)
.Ltmp21:
	.loc	1 68 6 is_stmt 0                # src/memory/free_command.c:68:6
	je	.LBB4_2
# %bb.1:
.Ltmp22:
	.loc	1 69 8 is_stmt 1                # src/memory/free_command.c:69:8
	movq	-8(%rbp), %rax
	.loc	1 69 13 is_stmt 0               # src/memory/free_command.c:69:13
	movq	16(%rax), %rdi
	.loc	1 69 3                          # src/memory/free_command.c:69:3
	callq	free
.Ltmp23:
.LBB4_2:
	.loc	1 70 6 is_stmt 1                # src/memory/free_command.c:70:6
	movq	-8(%rbp), %rax
	cmpq	$0, 24(%rax)
.Ltmp24:
	.loc	1 70 6 is_stmt 0                # src/memory/free_command.c:70:6
	je	.LBB4_4
# %bb.3:
.Ltmp25:
	.loc	1 71 8 is_stmt 1                # src/memory/free_command.c:71:8
	movq	-8(%rbp), %rax
	.loc	1 71 13 is_stmt 0               # src/memory/free_command.c:71:13
	movq	24(%rax), %rdi
	.loc	1 71 3                          # src/memory/free_command.c:71:3
	callq	free
.Ltmp26:
.LBB4_4:
	.loc	1 72 6 is_stmt 1                # src/memory/free_command.c:72:6
	movq	-8(%rbp), %rax
	cmpq	$0, 40(%rax)
.Ltmp27:
	.loc	1 72 6 is_stmt 0                # src/memory/free_command.c:72:6
	je	.LBB4_6
# %bb.5:
.Ltmp28:
	.loc	1 73 8 is_stmt 1                # src/memory/free_command.c:73:8
	movq	-8(%rbp), %rax
	.loc	1 73 13 is_stmt 0               # src/memory/free_command.c:73:13
	movq	40(%rax), %rdi
	.loc	1 73 3                          # src/memory/free_command.c:73:3
	callq	free
.Ltmp29:
.LBB4_6:
	.loc	1 74 6 is_stmt 1                # src/memory/free_command.c:74:6
	movq	-8(%rbp), %rax
	cmpq	$0, 32(%rax)
.Ltmp30:
	.loc	1 74 6 is_stmt 0                # src/memory/free_command.c:74:6
	je	.LBB4_8
# %bb.7:
.Ltmp31:
	.loc	1 75 16 is_stmt 1               # src/memory/free_command.c:75:16
	movq	-8(%rbp), %rax
	.loc	1 75 21 is_stmt 0               # src/memory/free_command.c:75:21
	movq	32(%rax), %rdi
	.loc	1 75 3                          # src/memory/free_command.c:75:3
	callq	free_cmd_arg
.Ltmp32:
.LBB4_8:
	.loc	1 76 6 is_stmt 1                # src/memory/free_command.c:76:6
	movq	-8(%rbp), %rax
	cmpq	$0, 48(%rax)
.Ltmp33:
	.loc	1 76 6 is_stmt 0                # src/memory/free_command.c:76:6
	je	.LBB4_10
# %bb.9:
.Ltmp34:
	.loc	1 77 18 is_stmt 1               # src/memory/free_command.c:77:18
	movq	-8(%rbp), %rax
	.loc	1 77 23 is_stmt 0               # src/memory/free_command.c:77:23
	movq	48(%rax), %rdi
	.loc	1 77 3                          # src/memory/free_command.c:77:3
	callq	free_cmd_redir
.Ltmp35:
.LBB4_10:
	.loc	1 78 6 is_stmt 1                # src/memory/free_command.c:78:6
	movq	-8(%rbp), %rax
	cmpq	$0, 88(%rax)
.Ltmp36:
	.loc	1 78 6 is_stmt 0                # src/memory/free_command.c:78:6
	je	.LBB4_12
# %bb.11:
.Ltmp37:
	.loc	1 79 19 is_stmt 1               # src/memory/free_command.c:79:19
	movq	-8(%rbp), %rax
	.loc	1 79 24 is_stmt 0               # src/memory/free_command.c:79:24
	movq	88(%rax), %rdi
	.loc	1 79 3                          # src/memory/free_command.c:79:3
	callq	free_char_array
.Ltmp38:
.LBB4_12:
	.loc	1 80 7 is_stmt 1                # src/memory/free_command.c:80:7
	movq	-8(%rbp), %rdi
	.loc	1 80 2 is_stmt 0                # src/memory/free_command.c:80:2
	callq	free
	.loc	1 81 1 is_stmt 1                # src/memory/free_command.c:81:1
	addq	$16, %rsp
	popq	%rbp
	.cfi_def_cfa %rsp, 8
	retq
.Ltmp39:
.Lfunc_end4:
	.size	free_cmd, .Lfunc_end4-free_cmd
	.cfi_endproc
                                        # -- End function
	.file	2 "/mnt/nfs/homes/jbocktor/student/group_minishell/more_hope/minigroups" "src/memory/../../include/minishell.h"
	.section	".note.GNU-stack","",@progbits
	.addrsig
	.addrsig_sym free_cmd_arg
	.addrsig_sym free
	.addrsig_sym free_cmd_infile
	.addrsig_sym free_cmd_outfile
	.addrsig_sym free_cmd_redir
	.addrsig_sym free_char_array