	.text
	.file	"exec.c"
	.file	1 "/mnt/nfs/homes/cboukhal/42/minishell" "src/execution/../../include/minishell.h"
	.globl	is_first_command                # -- Begin function is_first_command
	.p2align	4, 0x90
	.type	is_first_command,@function
is_first_command:                       # @is_first_command
.Lfunc_begin0:
	.file	2 "/mnt/nfs/homes/cboukhal/42/minishell" "src/execution/exec.c"
	.loc	2 16 0                          # src/execution/exec.c:16:0
	.cfi_startproc
# %bb.0:
	pushq	%rbp
	.cfi_def_cfa_offset 16
	.cfi_offset %rbp, -16
	movq	%rsp, %rbp
	.cfi_def_cfa_register %rbp
	movq	%rdi, -16(%rbp)
.Ltmp0:
	.loc	2 17 6 prologue_end             # src/execution/exec.c:17:6
	movq	-16(%rbp), %rax
	.loc	2 17 14 is_stmt 0               # src/execution/exec.c:17:14
	cmpl	$0, (%rax)
.Ltmp1:
	.loc	2 17 6                          # src/execution/exec.c:17:6
	jne	.LBB0_2
# %bb.1:
.Ltmp2:
	.loc	2 18 3 is_stmt 1                # src/execution/exec.c:18:3
	movb	$1, -1(%rbp)
	jmp	.LBB0_3
.Ltmp3:
.LBB0_2:
	.loc	2 19 2                          # src/execution/exec.c:19:2
	movb	$0, -1(%rbp)
.LBB0_3:
	.loc	2 20 1                          # src/execution/exec.c:20:1
	movb	-1(%rbp), %al
	andb	$1, %al
	movzbl	%al, %eax
	popq	%rbp
	.cfi_def_cfa %rsp, 8
	retq
.Ltmp4:
.Lfunc_end0:
	.size	is_first_command, .Lfunc_end0-is_first_command
	.cfi_endproc
                                        # -- End function
	.globl	exec_command                    # -- Begin function exec_command
	.p2align	4, 0x90
	.type	exec_command,@function
exec_command:                           # @exec_command
.Lfunc_begin1:
	.loc	2 23 0                          # src/execution/exec.c:23:0
	.cfi_startproc
# %bb.0:
	pushq	%rbp
	.cfi_def_cfa_offset 16
	.cfi_offset %rbp, -16
	movq	%rsp, %rbp
	.cfi_def_cfa_register %rbp
	subq	$16, %rsp
	movq	%rdi, -8(%rbp)
	movq	%rsi, -16(%rbp)
.Ltmp5:
	.loc	2 24 9 prologue_end             # src/execution/exec.c:24:9
	movq	-16(%rbp), %rax
	.loc	2 24 8 is_stmt 0                # src/execution/exec.c:24:8
	movq	(%rax), %rax
	.loc	2 24 7                          # src/execution/exec.c:24:7
	cmpq	$0, 16(%rax)
.Ltmp6:
	.loc	2 24 6                          # src/execution/exec.c:24:6
	jne	.LBB1_2
# %bb.1:
.Ltmp7:
	.loc	2 25 3 is_stmt 1                # src/execution/exec.c:25:3
	jmp	.LBB1_17
.Ltmp8:
.LBB1_2:
	.loc	2 26 8                          # src/execution/exec.c:26:8
	movq	-16(%rbp), %rax
	.loc	2 26 7 is_stmt 0                # src/execution/exec.c:26:7
	movq	(%rax), %rax
	.loc	2 26 19                         # src/execution/exec.c:26:19
	cmpl	$3, 8(%rax)
.Ltmp9:
	.loc	2 26 6                          # src/execution/exec.c:26:6
	jne	.LBB1_4
# %bb.3:
.Ltmp10:
	.loc	2 27 19 is_stmt 1               # src/execution/exec.c:27:19
	movq	-8(%rbp), %rdi
	.loc	2 27 32 is_stmt 0               # src/execution/exec.c:27:32
	movq	-16(%rbp), %rax
	.loc	2 27 31                         # src/execution/exec.c:27:31
	movq	(%rax), %rsi
	.loc	2 27 3                          # src/execution/exec.c:27:3
	callq	assign_variable
	jmp	.LBB1_17
.LBB1_4:
.Ltmp11:
	.loc	2 28 13 is_stmt 1               # src/execution/exec.c:28:13
	movq	-16(%rbp), %rax
	.loc	2 28 12 is_stmt 0               # src/execution/exec.c:28:12
	movq	(%rax), %rax
	.loc	2 28 11                         # src/execution/exec.c:28:11
	cmpq	$0, 16(%rax)
	.loc	2 28 24                         # src/execution/exec.c:28:24
	je	.LBB1_7
# %bb.5:
	.loc	2 28 40                         # src/execution/exec.c:28:40
	movq	-16(%rbp), %rax
	.loc	2 28 39                         # src/execution/exec.c:28:39
	movq	(%rax), %rax
	.loc	2 28 46                         # src/execution/exec.c:28:46
	movq	16(%rax), %rdi
	.loc	2 28 27                         # src/execution/exec.c:28:27
	callq	is_builtin
.Ltmp12:
	.loc	2 28 11                         # src/execution/exec.c:28:11
	testb	$1, %al
	jne	.LBB1_6
	jmp	.LBB1_7
.LBB1_6:
.Ltmp13:
	.loc	2 29 17 is_stmt 1               # src/execution/exec.c:29:17
	movq	-8(%rbp), %rax
	.loc	2 29 16 is_stmt 0               # src/execution/exec.c:29:16
	movq	(%rax), %rdi
	.loc	2 29 30                         # src/execution/exec.c:29:30
	movq	-16(%rbp), %rax
	.loc	2 29 29                         # src/execution/exec.c:29:29
	movq	(%rax), %rsi
	.loc	2 29 3                          # src/execution/exec.c:29:3
	callq	exec_builtin
	jmp	.LBB1_16
.LBB1_7:
.Ltmp14:
	.loc	2 30 13 is_stmt 1               # src/execution/exec.c:30:13
	movq	-16(%rbp), %rax
	.loc	2 30 12 is_stmt 0               # src/execution/exec.c:30:12
	movq	(%rax), %rax
	.loc	2 30 11                         # src/execution/exec.c:30:11
	cmpq	$0, 24(%rax)
	.loc	2 30 24                         # src/execution/exec.c:30:24
	je	.LBB1_14
# %bb.8:
	.loc	2 30 39                         # src/execution/exec.c:30:39
	movq	-16(%rbp), %rax
	.loc	2 30 38                         # src/execution/exec.c:30:38
	movq	(%rax), %rax
	.loc	2 30 45                         # src/execution/exec.c:30:45
	movq	16(%rax), %rdi
	.loc	2 30 27                         # src/execution/exec.c:30:27
	callq	ft_strlen
	.loc	2 30 51                         # src/execution/exec.c:30:51
	cmpq	$0, %rax
.Ltmp15:
	.loc	2 30 11                         # src/execution/exec.c:30:11
	jbe	.LBB1_14
# %bb.9:
.Ltmp16:
	.loc	2 32 17 is_stmt 1               # src/execution/exec.c:32:17
	callq	fork
	movl	%eax, %ecx
	.loc	2 32 5 is_stmt 0                # src/execution/exec.c:32:5
	movq	-16(%rbp), %rax
	.loc	2 32 4                          # src/execution/exec.c:32:4
	movq	(%rax), %rax
	.loc	2 32 15                         # src/execution/exec.c:32:15
	movl	%ecx, 4(%rax)
.Ltmp17:
	.loc	2 33 9 is_stmt 1                # src/execution/exec.c:33:9
	movq	-16(%rbp), %rax
	.loc	2 33 8 is_stmt 0                # src/execution/exec.c:33:8
	movq	(%rax), %rax
	.loc	2 33 19                         # src/execution/exec.c:33:19
	cmpl	$-1, 4(%rax)
.Ltmp18:
	.loc	2 33 7                          # src/execution/exec.c:33:7
	jne	.LBB1_11
# %bb.10:
.Ltmp19:
	.loc	2 34 4 is_stmt 1                # src/execution/exec.c:34:4
	movabsq	$.L.str, %rdi
	callq	perror
.Ltmp20:
.LBB1_11:
	.loc	2 35 9                          # src/execution/exec.c:35:9
	movq	-16(%rbp), %rax
	.loc	2 35 8 is_stmt 0                # src/execution/exec.c:35:8
	movq	(%rax), %rax
	.loc	2 35 19                         # src/execution/exec.c:35:19
	cmpl	$0, 4(%rax)
.Ltmp21:
	.loc	2 35 7                          # src/execution/exec.c:35:7
	jne	.LBB1_13
# %bb.12:
.Ltmp22:
	.loc	2 36 14 is_stmt 1               # src/execution/exec.c:36:14
	movq	-8(%rbp), %rdi
	.loc	2 36 27 is_stmt 0               # src/execution/exec.c:36:27
	movq	-16(%rbp), %rax
	.loc	2 36 26                         # src/execution/exec.c:36:26
	movq	(%rax), %rsi
	.loc	2 36 35                         # src/execution/exec.c:36:35
	movq	-8(%rbp), %rax
	.loc	2 36 34                         # src/execution/exec.c:36:34
	movq	(%rax), %rax
	.loc	2 36 47                         # src/execution/exec.c:36:47
	movq	48(%rax), %rdx
	.loc	2 36 4                          # src/execution/exec.c:36:4
	callq	child_job
.Ltmp23:
.LBB1_13:
	.loc	2 37 2 is_stmt 1                # src/execution/exec.c:37:2
	jmp	.LBB1_15
.Ltmp24:
.LBB1_14:
	.loc	2 40 42                         # src/execution/exec.c:40:42
	movq	-16(%rbp), %rax
	.loc	2 40 41 is_stmt 0               # src/execution/exec.c:40:41
	movq	(%rax), %rax
	.loc	2 40 48                         # src/execution/exec.c:40:48
	movq	16(%rax), %rsi
	.loc	2 40 3                          # src/execution/exec.c:40:3
	movabsq	$.L.str.1, %rdi
	movb	$0, %al
	callq	ft_printf
	.loc	2 41 5 is_stmt 1                # src/execution/exec.c:41:5
	movq	-8(%rbp), %rax
	.loc	2 41 4 is_stmt 0                # src/execution/exec.c:41:4
	movq	(%rax), %rax
	.loc	2 41 29                         # src/execution/exec.c:41:29
	movb	$127, 44(%rax)
.Ltmp25:
.LBB1_15:
	.loc	2 0 29                          # src/execution/exec.c:0:29
	jmp	.LBB1_16
.LBB1_16:
	jmp	.LBB1_17
.LBB1_17:
	.loc	2 43 1 is_stmt 1                # src/execution/exec.c:43:1
	addq	$16, %rsp
	popq	%rbp
	.cfi_def_cfa %rsp, 8
	retq
.Ltmp26:
.Lfunc_end1:
	.size	exec_command, .Lfunc_end1-exec_command
	.cfi_endproc
                                        # -- End function
	.globl	wait_command_ending             # -- Begin function wait_command_ending
	.p2align	4, 0x90
	.type	wait_command_ending,@function
wait_command_ending:                    # @wait_command_ending
.Lfunc_begin2:
	.loc	2 47 0                          # src/execution/exec.c:47:0
	.cfi_startproc
# %bb.0:
	pushq	%rbp
	.cfi_def_cfa_offset 16
	.cfi_offset %rbp, -16
	movq	%rsp, %rbp
	.cfi_def_cfa_register %rbp
	subq	$32, %rsp
	movq	%rdi, -8(%rbp)
	movq	%rsi, -16(%rbp)
	movq	%rdx, -24(%rbp)
	movl	%ecx, -28(%rbp)
.Ltmp27:
	.loc	2 49 8 prologue_end             # src/execution/exec.c:49:8
	movq	-16(%rbp), %rax
	.loc	2 49 7 is_stmt 0                # src/execution/exec.c:49:7
	movq	(%rax), %rax
	.loc	2 49 6                          # src/execution/exec.c:49:6
	cmpq	$0, 24(%rax)
	.loc	2 49 20                         # src/execution/exec.c:49:20
	je	.LBB2_6
# %bb.1:
	.loc	2 49 25                         # src/execution/exec.c:49:25
	cmpl	$0, -28(%rbp)
	.loc	2 49 30                         # src/execution/exec.c:49:30
	jne	.LBB2_6
# %bb.2:
	.loc	2 49 35                         # src/execution/exec.c:49:35
	movq	-16(%rbp), %rax
	.loc	2 49 34                         # src/execution/exec.c:49:34
	movq	(%rax), %rax
	.loc	2 49 42                         # src/execution/exec.c:49:42
	movq	24(%rax), %rax
	.loc	2 49 33                         # src/execution/exec.c:49:33
	cmpl	$0, 4(%rax)
	.loc	2 50 3 is_stmt 1                # src/execution/exec.c:50:3
	je	.LBB2_6
# %bb.3:
	.loc	2 50 8 is_stmt 0                # src/execution/exec.c:50:8
	movq	-16(%rbp), %rax
	.loc	2 50 7                          # src/execution/exec.c:50:7
	movq	(%rax), %rax
	.loc	2 50 15                         # src/execution/exec.c:50:15
	movq	24(%rax), %rax
	.loc	2 50 6                          # src/execution/exec.c:50:6
	cmpq	$0, 24(%rax)
	.loc	2 50 26                         # src/execution/exec.c:50:26
	je	.LBB2_6
# %bb.4:
	.loc	2 50 31                         # src/execution/exec.c:50:31
	movq	-16(%rbp), %rax
	.loc	2 50 30                         # src/execution/exec.c:50:30
	movq	(%rax), %rax
	.loc	2 50 38                         # src/execution/exec.c:50:38
	movq	24(%rax), %rax
	.loc	2 50 49                         # src/execution/exec.c:50:49
	cmpl	$2, 8(%rax)
.Ltmp28:
	.loc	2 49 6 is_stmt 1                # src/execution/exec.c:49:6
	je	.LBB2_6
# %bb.5:
.Ltmp29:
	.loc	2 52 13                         # src/execution/exec.c:52:13
	movq	-16(%rbp), %rax
	.loc	2 52 12 is_stmt 0               # src/execution/exec.c:52:12
	movq	(%rax), %rax
	.loc	2 52 20                         # src/execution/exec.c:52:20
	movq	24(%rax), %rax
	.loc	2 52 26                         # src/execution/exec.c:52:26
	movl	4(%rax), %edi
	.loc	2 52 34                         # src/execution/exec.c:52:34
	movq	-16(%rbp), %rax
	.loc	2 52 33                         # src/execution/exec.c:52:33
	movq	(%rax), %rsi
	.loc	2 52 41                         # src/execution/exec.c:52:41
	addq	$16, %rsi
	.loc	2 52 3                          # src/execution/exec.c:52:3
	xorl	%edx, %edx
	callq	waitpid
	.loc	2 53 31 is_stmt 1               # src/execution/exec.c:53:31
	movq	-16(%rbp), %rax
	movq	(%rax), %rax
	movl	16(%rax), %eax
	andl	$65280, %eax                    # imm = 0xFF00
	sarl	$8, %eax
	movb	%al, %cl
	.loc	2 53 5 is_stmt 0                # src/execution/exec.c:53:5
	movq	-8(%rbp), %rax
	.loc	2 53 4                          # src/execution/exec.c:53:4
	movq	(%rax), %rax
	.loc	2 53 29                         # src/execution/exec.c:53:29
	movb	%cl, 44(%rax)
.Ltmp30:
.LBB2_6:
	.loc	2 55 8 is_stmt 1                # src/execution/exec.c:55:8
	movq	-16(%rbp), %rax
	.loc	2 55 7 is_stmt 0                # src/execution/exec.c:55:7
	movq	(%rax), %rax
	.loc	2 55 6                          # src/execution/exec.c:55:6
	cmpq	$0, 32(%rax)
	.loc	2 55 21                         # src/execution/exec.c:55:21
	je	.LBB2_10
# %bb.7:
	.loc	2 55 26                         # src/execution/exec.c:55:26
	movq	-16(%rbp), %rax
	.loc	2 55 25                         # src/execution/exec.c:55:25
	movq	(%rax), %rax
	.loc	2 55 33                         # src/execution/exec.c:55:33
	movq	32(%rax), %rax
	.loc	2 55 24                         # src/execution/exec.c:55:24
	cmpq	$0, 24(%rax)
	.loc	2 56 3 is_stmt 1                # src/execution/exec.c:56:3
	je	.LBB2_10
# %bb.8:
	.loc	2 56 8 is_stmt 0                # src/execution/exec.c:56:8
	movq	-16(%rbp), %rax
	.loc	2 56 7                          # src/execution/exec.c:56:7
	movq	(%rax), %rax
	.loc	2 56 15                         # src/execution/exec.c:56:15
	movq	32(%rax), %rax
	.loc	2 56 27                         # src/execution/exec.c:56:27
	cmpl	$2, 8(%rax)
.Ltmp31:
	.loc	2 55 6 is_stmt 1                # src/execution/exec.c:55:6
	je	.LBB2_10
# %bb.9:
.Ltmp32:
	.loc	2 58 13                         # src/execution/exec.c:58:13
	movq	-16(%rbp), %rax
	.loc	2 58 12 is_stmt 0               # src/execution/exec.c:58:12
	movq	(%rax), %rax
	.loc	2 58 20                         # src/execution/exec.c:58:20
	movq	32(%rax), %rax
	.loc	2 58 27                         # src/execution/exec.c:58:27
	movl	4(%rax), %edi
	.loc	2 58 35                         # src/execution/exec.c:58:35
	movq	-16(%rbp), %rax
	.loc	2 58 34                         # src/execution/exec.c:58:34
	movq	(%rax), %rsi
	.loc	2 58 42                         # src/execution/exec.c:58:42
	addq	$16, %rsi
	.loc	2 58 3                          # src/execution/exec.c:58:3
	xorl	%edx, %edx
	callq	waitpid
	.loc	2 59 31 is_stmt 1               # src/execution/exec.c:59:31
	movq	-16(%rbp), %rax
	movq	(%rax), %rax
	movl	16(%rax), %eax
	andl	$65280, %eax                    # imm = 0xFF00
	sarl	$8, %eax
	movb	%al, %cl
	.loc	2 59 5 is_stmt 0                # src/execution/exec.c:59:5
	movq	-8(%rbp), %rax
	.loc	2 59 4                          # src/execution/exec.c:59:4
	movq	(%rax), %rax
	.loc	2 59 29                         # src/execution/exec.c:59:29
	movb	%cl, 44(%rax)
.Ltmp33:
.LBB2_10:
	.loc	2 61 1 is_stmt 1                # src/execution/exec.c:61:1
	addq	$32, %rsp
	popq	%rbp
	.cfi_def_cfa %rsp, 8
	retq
.Ltmp34:
.Lfunc_end2:
	.size	wait_command_ending, .Lfunc_end2-wait_command_ending
	.cfi_endproc
                                        # -- End function
	.globl	execution                       # -- Begin function execution
	.p2align	4, 0x90
	.type	execution,@function
execution:                              # @execution
.Lfunc_begin3:
	.loc	2 64 0                          # src/execution/exec.c:64:0
	.cfi_startproc
# %bb.0:
	pushq	%rbp
	.cfi_def_cfa_offset 16
	.cfi_offset %rbp, -16
	movq	%rsp, %rbp
	.cfi_def_cfa_register %rbp
	subq	$32, %rsp
	movq	%rdi, -8(%rbp)
.Ltmp35:
	.loc	2 68 4 prologue_end             # src/execution/exec.c:68:4
	movl	$0, -12(%rbp)
	.loc	2 69 8                          # src/execution/exec.c:69:8
	movq	-8(%rbp), %rax
	.loc	2 69 19 is_stmt 0               # src/execution/exec.c:69:19
	movq	72(%rax), %rax
	.loc	2 69 6                          # src/execution/exec.c:69:6
	movq	%rax, -24(%rbp)
	.loc	2 70 39 is_stmt 1               # src/execution/exec.c:70:39
	movq	-8(%rbp), %rax
	.loc	2 70 50 is_stmt 0               # src/execution/exec.c:70:50
	movq	56(%rax), %rdi
	.loc	2 70 25                         # src/execution/exec.c:70:25
	callq	get_env_array
	movq	%rax, %rcx
	.loc	2 70 2                          # src/execution/exec.c:70:2
	movq	-8(%rbp), %rax
	.loc	2 70 23                         # src/execution/exec.c:70:23
	movq	%rcx, 48(%rax)
.LBB3_1:                                # =>This Inner Loop Header: Depth=1
	.loc	2 71 9 is_stmt 1                # src/execution/exec.c:71:9
	xorl	%eax, %eax
                                        # kill: def $al killed $al killed $eax
	cmpq	$0, -24(%rbp)
	movb	%al, -25(%rbp)                  # 1-byte Spill
	.loc	2 71 13 is_stmt 0               # src/execution/exec.c:71:13
	je	.LBB3_4
# %bb.2:                                #   in Loop: Header=BB3_1 Depth=1
	.loc	2 71 16                         # src/execution/exec.c:71:16
	callq	__errno_location
	movq	%rax, %rcx
	.loc	2 71 22                         # src/execution/exec.c:71:22
	xorl	%eax, %eax
                                        # kill: def $al killed $al killed $eax
	cmpl	$0, (%rcx)
	movb	%al, -25(%rbp)                  # 1-byte Spill
	.loc	2 71 27                         # src/execution/exec.c:71:27
	jne	.LBB3_4
# %bb.3:                                #   in Loop: Header=BB3_1 Depth=1
	.loc	2 71 39                         # src/execution/exec.c:71:39
	cmpl	$0, g_signal
	sete	%al
	movb	%al, -25(%rbp)                  # 1-byte Spill
.LBB3_4:                                #   in Loop: Header=BB3_1 Depth=1
	.loc	2 0 39                          # src/execution/exec.c:0:39
	movb	-25(%rbp), %al                  # 1-byte Reload
	.loc	2 71 2                          # src/execution/exec.c:71:2
	testb	$1, %al
	jne	.LBB3_5
	jmp	.LBB3_15
.LBB3_5:                                #   in Loop: Header=BB3_1 Depth=1
.Ltmp36:
	.loc	2 73 7 is_stmt 1                # src/execution/exec.c:73:7
	movq	-24(%rbp), %rax
	.loc	2 73 12 is_stmt 0               # src/execution/exec.c:73:12
	movq	(%rax), %rax
	.loc	2 73 23                         # src/execution/exec.c:73:23
	cmpl	$2, 4(%rax)
.Ltmp37:
	.loc	2 73 7                          # src/execution/exec.c:73:7
	jne	.LBB3_7
# %bb.6:                                #   in Loop: Header=BB3_1 Depth=1
.Ltmp38:
	.loc	2 74 30 is_stmt 1               # src/execution/exec.c:74:30
	movq	-24(%rbp), %rax
	.loc	2 74 35 is_stmt 0               # src/execution/exec.c:74:35
	movq	(%rax), %rsi
	.loc	2 74 41                         # src/execution/exec.c:74:41
	addq	$24, %rsi
	.loc	2 74 4                          # src/execution/exec.c:74:4
	leaq	-8(%rbp), %rdi
	callq	exec_command
	jmp	.LBB3_14
.LBB3_7:                                #   in Loop: Header=BB3_1 Depth=1
.Ltmp39:
	.loc	2 75 12 is_stmt 1               # src/execution/exec.c:75:12
	movq	-24(%rbp), %rax
	.loc	2 75 17 is_stmt 0               # src/execution/exec.c:75:17
	movq	(%rax), %rax
	.loc	2 75 28                         # src/execution/exec.c:75:28
	cmpl	$8, 4(%rax)
.Ltmp40:
	.loc	2 75 12                         # src/execution/exec.c:75:12
	jne	.LBB3_9
# %bb.8:                                #   in Loop: Header=BB3_1 Depth=1
.Ltmp41:
	.loc	2 76 36 is_stmt 1               # src/execution/exec.c:76:36
	movl	-12(%rbp), %edx
	.loc	2 76 4 is_stmt 0                # src/execution/exec.c:76:4
	leaq	-8(%rbp), %rdi
	leaq	-24(%rbp), %rsi
	callq	exec_pipeline
	jmp	.LBB3_13
.LBB3_9:                                #   in Loop: Header=BB3_1 Depth=1
.Ltmp42:
	.loc	2 77 12 is_stmt 1               # src/execution/exec.c:77:12
	movq	-24(%rbp), %rax
	.loc	2 77 17 is_stmt 0               # src/execution/exec.c:77:17
	movq	(%rax), %rax
	.loc	2 77 28                         # src/execution/exec.c:77:28
	cmpl	$13, 4(%rax)
	.loc	2 77 38                         # src/execution/exec.c:77:38
	je	.LBB3_11
# %bb.10:                               #   in Loop: Header=BB3_1 Depth=1
	.loc	2 77 41                         # src/execution/exec.c:77:41
	movq	-24(%rbp), %rax
	.loc	2 77 46                         # src/execution/exec.c:77:46
	movq	(%rax), %rax
	.loc	2 77 57                         # src/execution/exec.c:77:57
	cmpl	$14, 4(%rax)
.Ltmp43:
	.loc	2 77 12                         # src/execution/exec.c:77:12
	jne	.LBB3_12
.LBB3_11:                               #   in Loop: Header=BB3_1 Depth=1
.Ltmp44:
	.loc	2 78 4 is_stmt 1                # src/execution/exec.c:78:4
	leaq	-8(%rbp), %rdi
	leaq	-24(%rbp), %rsi
	callq	exec_list
.Ltmp45:
.LBB3_12:                               #   in Loop: Header=BB3_1 Depth=1
	.loc	2 0 4 is_stmt 0                 # src/execution/exec.c:0:4
	jmp	.LBB3_13
.LBB3_13:                               #   in Loop: Header=BB3_1 Depth=1
	jmp	.LBB3_14
.LBB3_14:                               #   in Loop: Header=BB3_1 Depth=1
	.loc	2 79 36 is_stmt 1               # src/execution/exec.c:79:36
	movq	-24(%rbp), %rsi
	.loc	2 79 47 is_stmt 0               # src/execution/exec.c:79:47
	movq	-24(%rbp), %rdx
	.loc	2 79 52                         # src/execution/exec.c:79:52
	movl	-12(%rbp), %ecx
	.loc	2 79 3                          # src/execution/exec.c:79:3
	leaq	-8(%rbp), %rdi
	callq	wait_command_ending
	.loc	2 80 9 is_stmt 1                # src/execution/exec.c:80:9
	movq	-24(%rbp), %rax
	.loc	2 80 14 is_stmt 0               # src/execution/exec.c:80:14
	movq	8(%rax), %rax
	.loc	2 80 7                          # src/execution/exec.c:80:7
	movq	%rax, -24(%rbp)
	.loc	2 81 4 is_stmt 1                # src/execution/exec.c:81:4
	movl	-12(%rbp), %eax
	addl	$1, %eax
	movl	%eax, -12(%rbp)
.Ltmp46:
	.loc	2 71 2                          # src/execution/exec.c:71:2
	jmp	.LBB3_1
.LBB3_15:
	.loc	2 83 1                          # src/execution/exec.c:83:1
	addq	$32, %rsp
	popq	%rbp
	.cfi_def_cfa %rsp, 8
	retq
.Ltmp47:
.Lfunc_end3:
	.size	execution, .Lfunc_end3-execution
	.cfi_endproc
                                        # -- End function
	.type	.L.str,@object                  # @.str
	.section	.rodata.str1.1,"aMS",@progbits,1
.L.str:
	.asciz	"fork"
	.size	.L.str, 5

	.type	.L.str.1,@object                # @.str.1
.L.str.1:
	.asciz	"%s: command not found\n"
	.size	.L.str.1, 23

	.file	3 "/usr/include" "dirent.h"
	.file	4 "/usr/include" "signal.h"
	.file	5 "/usr/include/x86_64-linux-gnu/bits" "sigaction.h"
	.file	6 "/usr/include/x86_64-linux-gnu/bits/types" "siginfo_t.h"
	.file	7 "/usr/include/x86_64-linux-gnu/bits" "types.h"
	.file	8 "/usr/include/x86_64-linux-gnu/bits/types" "__sigval_t.h"
	.file	9 "/usr/include/x86_64-linux-gnu/bits/types" "__sigset_t.h"
	.file	10 "/usr/include/x86_64-linux-gnu/bits" "struct_stat.h"
	.file	11 "/usr/include/x86_64-linux-gnu/bits/types" "struct_timespec.h"
	.file	12 "/usr/include/x86_64-linux-gnu/bits" "termios.h"
	.file	13 "/usr/include/x86_64-linux-gnu/bits" "termios-struct.h"
	.section	".note.GNU-stack","",@progbits
	.addrsig
	.addrsig_sym exec_command
	.addrsig_sym assign_variable
	.addrsig_sym is_builtin
	.addrsig_sym exec_builtin
	.addrsig_sym ft_strlen
	.addrsig_sym fork
	.addrsig_sym perror
	.addrsig_sym child_job
	.addrsig_sym ft_printf
	.addrsig_sym wait_command_ending
	.addrsig_sym waitpid
	.addrsig_sym get_env_array
	.addrsig_sym __errno_location
	.addrsig_sym exec_pipeline
	.addrsig_sym exec_list
	.addrsig_sym g_signal