	.text
	.file	"env_setup.c"
	.globl	get_environment_size            # -- Begin function get_environment_size
	.p2align	4, 0x90
	.type	get_environment_size,@function
get_environment_size:                   # @get_environment_size
.Lfunc_begin0:
	.file	1 "/mnt/nfs/homes/cboukhal/minishell" "src/environment/env_setup.c"
	.loc	1 16 0                          # src/environment/env_setup.c:16:0
	.cfi_startproc
# %bb.0:
	pushq	%rbp
	.cfi_def_cfa_offset 16
	.cfi_offset %rbp, -16
	movq	%rsp, %rbp
	.cfi_def_cfa_register %rbp
	movq	%rdi, -8(%rbp)
.Ltmp0:
	.loc	1 19 4 prologue_end             # src/environment/env_setup.c:19:4
	movl	$0, -12(%rbp)
.LBB0_1:                                # =>This Inner Loop Header: Depth=1
	.loc	1 20 9                          # src/environment/env_setup.c:20:9
	movq	-8(%rbp), %rax
	movslq	-12(%rbp), %rcx
	.loc	1 20 2 is_stmt 0                # src/environment/env_setup.c:20:2
	cmpq	$0, (%rax,%rcx,8)
	je	.LBB0_3
# %bb.2:                                #   in Loop: Header=BB0_1 Depth=1
	.loc	1 21 4 is_stmt 1                # src/environment/env_setup.c:21:4
	movl	-12(%rbp), %eax
	addl	$1, %eax
	movl	%eax, -12(%rbp)
	.loc	1 20 2                          # src/environment/env_setup.c:20:2
	jmp	.LBB0_1
.LBB0_3:
	.loc	1 22 10                         # src/environment/env_setup.c:22:10
	movl	-12(%rbp), %eax
	.loc	1 22 2 is_stmt 0                # src/environment/env_setup.c:22:2
	popq	%rbp
	.cfi_def_cfa %rsp, 8
	retq
.Ltmp1:
.Lfunc_end0:
	.size	get_environment_size, .Lfunc_end0-get_environment_size
	.cfi_endproc
                                        # -- End function
	.globl	init_env_var_attr               # -- Begin function init_env_var_attr
	.p2align	4, 0x90
	.type	init_env_var_attr,@function
init_env_var_attr:                      # @init_env_var_attr
.Lfunc_begin1:
	.loc	1 26 0 is_stmt 1                # src/environment/env_setup.c:26:0
	.cfi_startproc
# %bb.0:
	pushq	%rbp
	.cfi_def_cfa_offset 16
	.cfi_offset %rbp, -16
	movq	%rsp, %rbp
	.cfi_def_cfa_register %rbp
	movq	%rdi, -8(%rbp)
.Ltmp2:
	.loc	1 27 4 prologue_end             # src/environment/env_setup.c:27:4
	movq	-8(%rbp), %rax
	.loc	1 27 3 is_stmt 0                # src/environment/env_setup.c:27:3
	movq	(%rax), %rax
	.loc	1 27 15                         # src/environment/env_setup.c:27:15
	movq	$0, (%rax)
	.loc	1 28 4 is_stmt 1                # src/environment/env_setup.c:28:4
	movq	-8(%rbp), %rax
	.loc	1 28 3 is_stmt 0                # src/environment/env_setup.c:28:3
	movq	(%rax), %rax
	.loc	1 28 16                         # src/environment/env_setup.c:28:16
	movq	$0, 8(%rax)
	.loc	1 29 4 is_stmt 1                # src/environment/env_setup.c:29:4
	movq	-8(%rbp), %rax
	.loc	1 29 3 is_stmt 0                # src/environment/env_setup.c:29:3
	movq	(%rax), %rax
	.loc	1 29 15                         # src/environment/env_setup.c:29:15
	movq	$0, 16(%rax)
	.loc	1 30 1 is_stmt 1                # src/environment/env_setup.c:30:1
	popq	%rbp
	.cfi_def_cfa %rsp, 8
	retq
.Ltmp3:
.Lfunc_end1:
	.size	init_env_var_attr, .Lfunc_end1-init_env_var_attr
	.cfi_endproc
                                        # -- End function
	.globl	get_env_variable                # -- Begin function get_env_variable
	.p2align	4, 0x90
	.type	get_env_variable,@function
get_env_variable:                       # @get_env_variable
.Lfunc_begin2:
	.loc	1 33 0                          # src/environment/env_setup.c:33:0
	.cfi_startproc
# %bb.0:
	pushq	%rbp
	.cfi_def_cfa_offset 16
	.cfi_offset %rbp, -16
	movq	%rsp, %rbp
	.cfi_def_cfa_register %rbp
	subq	$32, %rsp
	movq	%rdi, -16(%rbp)
.Ltmp4:
	.loc	1 36 8 prologue_end             # src/environment/env_setup.c:36:8
	movl	$24, %edi
	callq	malloc
	.loc	1 36 6 is_stmt 0                # src/environment/env_setup.c:36:6
	movq	%rax, -24(%rbp)
.Ltmp5:
	.loc	1 37 7 is_stmt 1                # src/environment/env_setup.c:37:7
	cmpq	$0, -24(%rbp)
.Ltmp6:
	.loc	1 37 6 is_stmt 0                # src/environment/env_setup.c:37:6
	jne	.LBB2_2
# %bb.1:
.Ltmp7:
	.loc	1 38 11 is_stmt 1               # src/environment/env_setup.c:38:11
	movabsq	$.L.str, %rdi
	callq	perror
	.loc	1 38 3 is_stmt 0                # src/environment/env_setup.c:38:3
	movq	$0, -8(%rbp)
	jmp	.LBB2_3
.Ltmp8:
.LBB2_2:
	.loc	1 39 2 is_stmt 1                # src/environment/env_setup.c:39:2
	leaq	-24(%rbp), %rdi
	callq	init_env_var_attr
	.loc	1 40 32                         # src/environment/env_setup.c:40:32
	movq	-16(%rbp), %rdi
	.loc	1 40 14 is_stmt 0               # src/environment/env_setup.c:40:14
	callq	get_variable_name
	movq	%rax, %rcx
	.loc	1 40 2                          # src/environment/env_setup.c:40:2
	movq	-24(%rbp), %rax
	.loc	1 40 12                         # src/environment/env_setup.c:40:12
	movq	%rcx, (%rax)
	.loc	1 41 34 is_stmt 1               # src/environment/env_setup.c:41:34
	movq	-16(%rbp), %rdi
	.loc	1 41 15 is_stmt 0               # src/environment/env_setup.c:41:15
	callq	get_variable_value
	movq	%rax, %rcx
	.loc	1 41 2                          # src/environment/env_setup.c:41:2
	movq	-24(%rbp), %rax
	.loc	1 41 13                         # src/environment/env_setup.c:41:13
	movq	%rcx, 8(%rax)
	.loc	1 42 10 is_stmt 1               # src/environment/env_setup.c:42:10
	movq	-24(%rbp), %rax
	.loc	1 42 2 is_stmt 0                # src/environment/env_setup.c:42:2
	movq	%rax, -8(%rbp)
.LBB2_3:
	.loc	1 43 1 is_stmt 1                # src/environment/env_setup.c:43:1
	movq	-8(%rbp), %rax
	addq	$32, %rsp
	popq	%rbp
	.cfi_def_cfa %rsp, 8
	retq
.Ltmp9:
.Lfunc_end2:
	.size	get_env_variable, .Lfunc_end2-get_env_variable
	.cfi_endproc
                                        # -- End function
	.globl	extract_environment             # -- Begin function extract_environment
	.p2align	4, 0x90
	.type	extract_environment,@function
extract_environment:                    # @extract_environment
.Lfunc_begin3:
	.loc	1 46 0                          # src/environment/env_setup.c:46:0
	.cfi_startproc
# %bb.0:
	pushq	%rbp
	.cfi_def_cfa_offset 16
	.cfi_offset %rbp, -16
	movq	%rsp, %rbp
	.cfi_def_cfa_register %rbp
	subq	$48, %rsp
	movq	%rdi, -8(%rbp)
.Ltmp10:
	.loc	1 52 25 prologue_end            # src/environment/env_setup.c:52:25
	movq	-8(%rbp), %rax
	movq	(%rax), %rdi
	.loc	1 52 8 is_stmt 0                # src/environment/env_setup.c:52:8
	callq	get_env_variable
	.loc	1 52 6                          # src/environment/env_setup.c:52:6
	movq	%rax, -32(%rbp)
	.loc	1 53 12 is_stmt 1               # src/environment/env_setup.c:53:12
	movq	-32(%rbp), %rax
	.loc	1 53 10 is_stmt 0               # src/environment/env_setup.c:53:10
	movq	%rax, -40(%rbp)
	.loc	1 54 4 is_stmt 1                # src/environment/env_setup.c:54:4
	movl	$1, -12(%rbp)
.LBB3_1:                                # =>This Inner Loop Header: Depth=1
	.loc	1 55 9                          # src/environment/env_setup.c:55:9
	movq	-8(%rbp), %rax
	movslq	-12(%rbp), %rcx
	.loc	1 55 2 is_stmt 0                # src/environment/env_setup.c:55:2
	cmpq	$0, (%rax,%rcx,8)
	je	.LBB3_3
# %bb.2:                                #   in Loop: Header=BB3_1 Depth=1
.Ltmp11:
	.loc	1 57 26 is_stmt 1               # src/environment/env_setup.c:57:26
	movq	-8(%rbp), %rax
	movslq	-12(%rbp), %rcx
	movq	(%rax,%rcx,8), %rdi
	.loc	1 57 9 is_stmt 0                # src/environment/env_setup.c:57:9
	callq	get_env_variable
	.loc	1 57 7                          # src/environment/env_setup.c:57:7
	movq	%rax, -24(%rbp)
	.loc	1 58 19 is_stmt 1               # src/environment/env_setup.c:58:19
	movq	-24(%rbp), %rcx
	.loc	1 58 3 is_stmt 0                # src/environment/env_setup.c:58:3
	movq	-40(%rbp), %rax
	.loc	1 58 17                         # src/environment/env_setup.c:58:17
	movq	%rcx, 16(%rax)
	.loc	1 59 13 is_stmt 1               # src/environment/env_setup.c:59:13
	movq	-24(%rbp), %rax
	.loc	1 59 11 is_stmt 0               # src/environment/env_setup.c:59:11
	movq	%rax, -40(%rbp)
	.loc	1 60 4 is_stmt 1                # src/environment/env_setup.c:60:4
	movl	-12(%rbp), %eax
	addl	$1, %eax
	movl	%eax, -12(%rbp)
.Ltmp12:
	.loc	1 55 2                          # src/environment/env_setup.c:55:2
	jmp	.LBB3_1
.LBB3_3:
	.loc	1 62 10                         # src/environment/env_setup.c:62:10
	movq	-32(%rbp), %rax
	.loc	1 62 2 is_stmt 0                # src/environment/env_setup.c:62:2
	addq	$48, %rsp
	popq	%rbp
	.cfi_def_cfa %rsp, 8
	retq
.Ltmp13:
.Lfunc_end3:
	.size	extract_environment, .Lfunc_end3-extract_environment
	.cfi_endproc
                                        # -- End function
	.globl	init_environment                # -- Begin function init_environment
	.p2align	4, 0x90
	.type	init_environment,@function
init_environment:                       # @init_environment
.Lfunc_begin4:
	.loc	1 66 0 is_stmt 1                # src/environment/env_setup.c:66:0
	.cfi_startproc
# %bb.0:
	pushq	%rbp
	.cfi_def_cfa_offset 16
	.cfi_offset %rbp, -16
	movq	%rsp, %rbp
	.cfi_def_cfa_register %rbp
	subq	$16, %rsp
	movq	%rdi, -8(%rbp)
	movq	%rsi, -16(%rbp)
.Ltmp14:
	.loc	1 67 27 prologue_end            # src/environment/env_setup.c:67:27
	movq	-16(%rbp), %rdi
	.loc	1 67 6 is_stmt 0                # src/environment/env_setup.c:67:6
	callq	get_environment_size
	.loc	1 67 33                         # src/environment/env_setup.c:67:33
	cmpl	$0, %eax
.Ltmp15:
	.loc	1 67 6                          # src/environment/env_setup.c:67:6
	jne	.LBB4_2
# %bb.1:
.Ltmp16:
	.loc	1 68 10 is_stmt 1               # src/environment/env_setup.c:68:10
	callq	create_default_env
	movq	%rax, %rcx
	.loc	1 68 4 is_stmt 0                # src/environment/env_setup.c:68:4
	movq	-8(%rbp), %rax
	.loc	1 68 8                          # src/environment/env_setup.c:68:8
	movq	%rcx, (%rax)
	.loc	1 68 3                          # src/environment/env_setup.c:68:3
	jmp	.LBB4_3
.LBB4_2:
	.loc	1 70 30 is_stmt 1               # src/environment/env_setup.c:70:30
	movq	-16(%rbp), %rdi
	.loc	1 70 10 is_stmt 0               # src/environment/env_setup.c:70:10
	callq	extract_environment
	movq	%rax, %rcx
	.loc	1 70 4                          # src/environment/env_setup.c:70:4
	movq	-8(%rbp), %rax
	.loc	1 70 8                          # src/environment/env_setup.c:70:8
	movq	%rcx, (%rax)
.Ltmp17:
.LBB4_3:
	.loc	1 71 1 is_stmt 1                # src/environment/env_setup.c:71:1
	addq	$16, %rsp
	popq	%rbp
	.cfi_def_cfa %rsp, 8
	retq
.Ltmp18:
.Lfunc_end4:
	.size	init_environment, .Lfunc_end4-init_environment
	.cfi_endproc
                                        # -- End function
	.type	.L.str,@object                  # @.str
	.section	.rodata.str1.1,"aMS",@progbits,1
.L.str:
	.asciz	"malloc"
	.size	.L.str, 7

	.file	2 "/mnt/nfs/homes/cboukhal/minishell" "src/environment/../../include/minishell.h"
	.section	".note.GNU-stack","",@progbits
	.addrsig
	.addrsig_sym get_environment_size
	.addrsig_sym init_env_var_attr
	.addrsig_sym get_env_variable
	.addrsig_sym malloc
	.addrsig_sym perror
	.addrsig_sym get_variable_name
	.addrsig_sym get_variable_value
	.addrsig_sym extract_environment
	.addrsig_sym create_default_env